L251 LINKER/LOCATER V4.66.93.0                                                          05/30/2024  09:54:01  PAGE 1


L251 LINKER/LOCATER V4.66.93.0, INVOKED BY:
D:\KEILMDK\C251\BIN\L251.EXE .\obj\ISR.obj, .\obj\main.obj, .\obj\EepRom.obj, .\obj\uart.obj, .\obj\Lcd.obj, .\obj\LcdAp
>> p.obj, .\obj\ModBus.obj, .\obj\Temper.obj, .\obj\FlowMeter.obj, .\obj\ModBusDev.obj, .\obj\ModBusHost.obj TO .\obj\Pi
>> leCore PRINT (.\obj\PileCore.map) CASE REMOVEUNUSED CLASSES (EDATA (0X0-0XFFF), HDATA (0X0-0XFFF))


CPU MODE:     251 SOURCE MODE
INTR FRAME:   4 BYTES SAVED ON INTERRUPT
MEMORY MODEL: XSMALL WITH FLOATING POINT ARITHMETIC


INPUT MODULES INCLUDED:
  .\obj\ISR.obj (ISR)
         COMMENT TYPE 0: A251 V4.69.13.0
  .\obj\main.obj (main)
         COMMENT TYPE 0: C251 V5.60.0
  .\obj\EepRom.obj (EepRom)
         COMMENT TYPE 0: C251 V5.60.0
  .\obj\uart.obj (uart)
         COMMENT TYPE 0: C251 V5.60.0
  .\obj\Lcd.obj (Lcd)
         COMMENT TYPE 0: C251 V5.60.0
  .\obj\LcdApp.obj (LcdApp)
         COMMENT TYPE 0: C251 V5.60.0
  .\obj\ModBus.obj (ModBus)
         COMMENT TYPE 0: C251 V5.60.0
  .\obj\Temper.obj (Temper)
         COMMENT TYPE 0: C251 V5.60.0
  .\obj\FlowMeter.obj (FlowMeter)
         COMMENT TYPE 0: C251 V5.60.0
  .\obj\ModBusDev.obj (ModBusDev)
         COMMENT TYPE 0: C251 V5.60.0
  .\obj\ModBusHost.obj (ModBusHost)
         COMMENT TYPE 0: C251 V5.60.0
  D:\KEILMDK\C251\LIB\C2SFPXS.LIB (?C?FPADD)
         COMMENT TYPE 0: A251 V4.69.6.0
  D:\KEILMDK\C251\LIB\C2SFPXS.LIB (?C?FPMUL)
         COMMENT TYPE 0: A251 V4.69.6.0
  D:\KEILMDK\C251\LIB\C2SFPXS.LIB (?C?FPDIV)
         COMMENT TYPE 0: A251 V4.69.6.0
  D:\KEILMDK\C251\LIB\C2SFPXS.LIB (?C?FPCMP)
         COMMENT TYPE 0: A251 V4.69.6.0
  D:\KEILMDK\C251\LIB\C2SFPXS.LIB (?C?FCAST)
         COMMENT TYPE 0: A251 V4.69.6.0
  D:\KEILMDK\C251\LIB\C2SFPXS.LIB (?C?CASTF)
         COMMENT TYPE 0: A251 V4.69.6.0
  D:\KEILMDK\C251\LIB\C2SFPXS.LIB (SPRINTF)
         COMMENT TYPE 0: A251 V4.69.6.0
  D:\KEILMDK\C251\LIB\C2SFPXS.LIB (?C?FPGETOPN)
         COMMENT TYPE 0: A251 V4.69.6.0
  D:\KEILMDK\C251\LIB\C2SFPXS.LIB (?C?PRNFMT)
         COMMENT TYPE 0: A251 V4.69.6.0
  D:\KEILMDK\C251\LIB\C2SFPXS.LIB (?C?FPCONVERT)
         COMMENT TYPE 0: A251 V4.69.6.0
  D:\KEILMDK\C251\LIB\C2SFPXS.LIB (?C?FTNPWR)
         COMMENT TYPE 0: A251 V4.69.6.0
  D:\KEILMDK\C251\LIB\C2SXS.LIB (?C_START)
         COMMENT TYPE 0: A251 V4.69.6.0
  D:\KEILMDK\C251\LIB\C2SXS.LIB (?C?INITEDATA)
         COMMENT TYPE 0: A251 V4.69.6.0
  D:\KEILMDK\C251\LIB\C2SXS.LIB (?C?INITHDATA)
         COMMENT TYPE 0: A251 V4.69.6.0
  D:\KEILMDK\C251\LIB\C2SXS.LIB (?C?SIDIV)
         COMMENT TYPE 0: A251 V4.69.6.0
  D:\KEILMDK\C251\LIB\C2SXS.LIB (?C?ULDIV)
         COMMENT TYPE 0: A251 V4.69.6.0
L251 LINKER/LOCATER V4.66.93.0                                                        05/30/2024  09:54:01  PAGE 2


  D:\KEILMDK\C251\LIB\C2SXS.LIB (?C?BMOVENP)
         COMMENT TYPE 0: A251 V4.69.6.0
  D:\KEILMDK\C251\LIB\C2SXS.LIB (STRLEN)
         COMMENT TYPE 0: C251 V5.58.7
  D:\KEILMDK\C251\LIB\C2SXS.LIB (memcmp)
         COMMENT TYPE 0: C251 V5.58.7
  D:\KEILMDK\C251\LIB\C2SXS.LIB (memcpy)
         COMMENT TYPE 0: C251 V5.58.7
  D:\KEILMDK\C251\LIB\C2SXS.LIB (memset)
         COMMENT TYPE 0: C251 V5.58.7
  D:\KEILMDK\C251\LIB\C2SXS.LIB (?C?INITEDATA_END)
         COMMENT TYPE 0: A251 V4.69.6.0
  D:\KEILMDK\C251\LIB\C2SXS.LIB (?C?INITHDATA_END)
         COMMENT TYPE 0: A251 V4.69.6.0


ACTIVE MEMORY CLASSES OF MODULE:  .\obj\PileCore (ISR)

BASE        START       END         USED      MEMORY CLASS
==========================================================
000000H     000000H     000FFFH     000552H   EDATA
000000H     000000H     000FFFH               HDATA
FF0000H     FF0000H     FFFFFFH     0048EDH   CODE
000000H     FF0000H     FFFFFFH     000530H   HCONST
010000H     010000H     01FFFFH     000B51H   XDATA
000020H.0   000020H.0   00002FH.7   000000H.4 BIT
FF0000H     FF0000H     FFFFFFH     000004H   CONST
000000H     000000H     00007FH     000008H   DATA


MEMORY MAP OF MODULE:  .\obj\PileCore (ISR)


START     STOP      LENGTH    ALIGN  RELOC    MEMORY CLASS   SEGMENT NAME
=========================================================================
000000H   000007H   000008H   ---    AT..     DATA           "REG BANK 0"
000008H   00001DH   000016H   BYTE   UNIT     EDATA          ?ED?SETLCDTIME?LCD
00001EH   00001FH   000002H   BYTE   UNIT     EDATA          ?ED?DEBUGINT?MAIN
000020H.0 000020H.3 000000H.4 BIT    UNIT     BIT            ?BI?UART
000020H.4 000020H   000000H.4 ---    ---      **GAP**
000021H   0001C0H   0001A0H   BYTE   UNIT     EDATA          ?ED?UART
0001C1H   000230H   000070H   BYTE   UNIT     EDATA          ?ED?MAIN
000231H   000258H   000028H   BYTE   UNIT     EDATA          _EDATA_GROUP_
000259H   000272H   00001AH   BYTE   UNIT     EDATA          ?ED?SETCURTIME?LCDAPP
000273H   000286H   000014H   BYTE   UNIT     EDATA          ?ED?CRC16CALC?MODBUS
000287H   000298H   000012H   BYTE   UNIT     EDATA          ?ED?EEPROM_WRITE?EEPROM
000299H   0002A9H   000011H   BYTE   UNIT     EDATA          ?ED?LCDAPP
0002AAH   0002BAH   000011H   BYTE   UNIT     EDATA          ?ED?HOSTSENDCMD?MODBUSHOST
0002BBH   0002C6H   00000CH   BYTE   UNIT     EDATA          ?ED?LCDCMD?LCD
0002C7H   0002D2H   00000CH   BYTE   UNIT     EDATA          ?ED?FLOATTOBYTES?MODBUS
0002D3H   0002DEH   00000CH   BYTE   UNIT     EDATA          ?ED?BYTESTOFLOAT?MODBUS
0002DFH   0002EAH   00000CH   BYTE   UNIT     EDATA          ?ED?BYTESTODWORD?MODBUS
0002EBH   0002F6H   00000CH   BYTE   UNIT     EDATA          ?ED?PACKAGEREG?MODBUSDEV
0002F7H   000302H   00000CH   BYTE   UNIT     EDATA          ?ED?WRITEREGVALUE?MODBUSDEV
000303H   00030CH   00000AH   BYTE   UNIT     EDATA          ?ED?PARAMCHECK?MAIN
00030DH   000316H   00000AH   BYTE   UNIT     EDATA          ?ED?EEPROM_READ?EEPROM
000317H   000320H   00000AH   BYTE   UNIT     EDATA          ?ED?SETRUNTIME?LCDAPP
000321H   00032AH   00000AH   BYTE   UNIT     EDATA          ?ED?PACKAGEFLOATVALUE?MODBUSDEV
00032BH   000334H   00000AH   BYTE   UNIT     EDATA          ?ED?PACKAGEDWORDVALUE?MODBUSDEV
000335H   00033EH   00000AH   BYTE   UNIT     EDATA          ?ED?SENDTCPFRAME?MODBUSHOST
00033FH   000347H   000009H   BYTE   UNIT     EDATA          ?ED?READFLOW?FLOWMETER
000348H   00034FH   000008H   BYTE   UNIT     EDATA          ?ED?BYTECONVERT?MODBUS
000350H   000357H   000008H   BYTE   UNIT     EDATA          ?ED?BYTESTOWORD?MODBUS
000358H   00035FH   000008H   BYTE   UNIT     EDATA          ?ED?SWENDIAN?MODBUS
000360H   000366H   000007H   BYTE   UNIT     EDATA          ?ED?GETFLOW?MAIN
L251 LINKER/LOCATER V4.66.93.0                                                        05/30/2024  09:54:01  PAGE 3


000367H   00036DH   000007H   BYTE   UNIT     EDATA          ?ED?VALIDRTUFRAME?MODBUS
00036EH   000374H   000007H   BYTE   UNIT     EDATA          ?ED?SENDBUFFER?MODBUSHOST
000375H   00037AH   000006H   BYTE   UNIT     EDATA          ?ED?DUMPCMD?MAIN
00037BH   000380H   000006H   BYTE   UNIT     EDATA          ?ED?UART1SEND?UART
000381H   000386H   000006H   BYTE   UNIT     EDATA          ?ED?UART2SEND?UART
000387H   00038CH   000006H   BYTE   UNIT     EDATA          ?ED?UART3SEND?UART
00038DH   000392H   000006H   BYTE   UNIT     EDATA          ?ED?UART4SEND?UART
000393H   000398H   000006H   BYTE   UNIT     EDATA          ?ED?VALIDLCDFRAME?LCD
000399H   00039EH   000006H   BYTE   UNIT     EDATA          ?ED?POPWORD?LCD
00039FH   0003A4H   000006H   BYTE   UNIT     EDATA          ?ED?SHOWMODULE?LCD
0003A5H   0003AAH   000006H   BYTE   UNIT     EDATA          ?ED?READREG?LCDAPP
0003ABH   0003B0H   000006H   BYTE   UNIT     EDATA          ?ED?VALIDTCPFRAME?MODBUS
0003B1H   0003B6H   000006H   BYTE   UNIT     EDATA          ?ED?GET_TEMPERATURE?TEMPER
0003B7H   0003BCH   000006H   BYTE   UNIT     EDATA          ?ED?FLOWMETERACK?FLOWMETER
0003BDH   0003C2H   000006H   BYTE   UNIT     EDATA          ?ED?PACKAGEWORDVALUE?MODBUSDEV
0003C3H   0003C8H   000006H   BYTE   UNIT     EDATA          ?ED?READACK?MODBUSDEV
0003C9H   0003CDH   000005H   BYTE   UNIT     EDATA          ?ED?DEBUGMSG?MAIN
0003CEH   0003D2H   000005H   BYTE   UNIT     EDATA          ?ED?CHECKALARM?MAIN
0003D3H   0003D7H   000005H   BYTE   UNIT     EDATA          ?ED?CHECKDATALEN?LCD
0003D8H   0003DCH   000005H   BYTE   UNIT     EDATA          ?ED?ENTERPAGE?LCD
0003DDH   0003E1H   000005H   BYTE   UNIT     EDATA          ?ED?HNDMODBUSRECV?MODBUSDEV
0003E2H   0003E5H   000004H   BYTE   UNIT     EDATA          ?ED?RUNLED?MAIN
0003E6H   0003E9H   000004H   BYTE   UNIT     EDATA          ?ED?DELAY?MAIN
0003EAH   0003EDH   000004H   BYTE   UNIT     EDATA          ?ED?EEPROM_SECTORERASE?EEPROM
0003EEH   0003F1H   000004H   BYTE   UNIT     EDATA          ?ED?SWDWORD?LCD
0003F2H   0003F5H   000004H   BYTE   UNIT     EDATA          ?ED?HNDLCDFRAME?LCD
0003F6H   0003F9H   000004H   BYTE   UNIT     EDATA          ?ED?SETTEXTCOLOR?LCD
0003FAH   0003FDH   000004H   BYTE   UNIT     EDATA          ?ED?HIDEMODULE?LCD
0003FEH   000401H   000004H   BYTE   UNIT     EDATA          ?ED?SHOWTEMP?LCDAPP
000402H   000405H   000004H   BYTE   UNIT     EDATA          ?ED?SWENDIANW?MODBUS
000406H   000409H   000004H   BYTE   UNIT     EDATA          ?ED?TEMPER
00040AH   00040DH   000004H   BYTE   UNIT     EDATA          ?ED?MODBUSHOST
00040EH   000410H   000003H   BYTE   UNIT     EDATA          ?ED?LCD
000411H   000413H   000003H   BYTE   UNIT     EDATA          ?ED?SETBKLIGHT?LCD
000414H   000416H   000003H   BYTE   UNIT     EDATA          ?ED?SHOWEMSTOP?LCDAPP
000417H   000419H   000003H   BYTE   UNIT     EDATA          ?ED?GET_ADC12BITRESULT?TEMPER
00041AH   00041CH   000003H   BYTE   UNIT     EDATA          ?ED?SENDREADFLOW?FLOWMETER
00041DH   00041EH   000002H   BYTE   UNIT     EDATA          ?ED?OUTCTL?MAIN
00041FH   000420H   000002H   BYTE   UNIT     EDATA          ?ED?TIMERTASK?MAIN
000421H   000422H   000002H   BYTE   UNIT     EDATA          ?ED?DELAY_MS?MAIN
000423H   000424H   000002H   BYTE   UNIT     EDATA          ?ED?STOPSAMP?MAIN
000425H   000426H   000002H   BYTE   UNIT     EDATA          ?ED?TIMINGMODE?MAIN
000427H   000428H   000002H   BYTE   UNIT     EDATA          ?ED?VOLUMEMODE?MAIN
000429H   00042AH   000002H   BYTE   UNIT     EDATA          ?ED?ABNORALAERM?MAIN
00042BH   00042CH   000002H   BYTE   UNIT     EDATA          ?ED?SWWORD?LCD
00042DH   00042EH   000002H   BYTE   UNIT     EDATA          ?ED?SHOWDEVINFO?LCDAPP
00042FH   000430H   000002H   BYTE   UNIT     EDATA          ?ED?STARTBUTTON?LCDAPP
000431H   000432H   000002H   BYTE   UNIT     EDATA          ?ED?VERIFYPASSWORD?LCDAPP
000433H   000434H   000002H   BYTE   UNIT     EDATA          ?ED?RETURNSTART?LCDAPP
000435H   000436H   000002H   BYTE   UNIT     EDATA          ?ED?SAMPCTL?LCDAPP
000437H   000438H   000002H   BYTE   UNIT     EDATA          ?ED?STATUSCOLOR?LCDAPP
000439H   00043AH   000002H   BYTE   UNIT     EDATA          ?ED?SETCHCOUNT?LCDAPP
00043BH   00043CH   000002H   BYTE   UNIT     EDATA          ?ED?REGSW?MODBUS
00043DH   00043EH   000002H   BYTE   UNIT     EDATA          ?ED?WRITEACK?MODBUSDEV
00043FH   000440H   000002H   BYTE   UNIT     EDATA          ?ED?POPREG?MODBUSHOST
000441H   000441H   000001H   BYTE   UNIT     EDATA          ?ED?OUTFLASH?MAIN
000442H   000442H   000001H   BYTE   UNIT     EDATA          ?ED?IOCTLTASK?MAIN
000443H   000443H   000001H   BYTE   UNIT     EDATA          ?ED?GETINPUT?MAIN
000444H   000444H   000001H   BYTE   UNIT     EDATA          ?ED?PARAMDEF?MAIN
000445H   000445H   000001H   BYTE   UNIT     EDATA          ?ED?UPDATAUI?MAIN
000446H   000446H   000001H   BYTE   UNIT     EDATA          ?ED?STARTSAMP?MAIN
000447H   000447H   000001H   BYTE   UNIT     EDATA          ?ED?CHECKMODESTOP?MAIN
000448H   000448H   000001H   BYTE   UNIT     EDATA          ?ED?CHANNEL_MANMODE?MAIN
000449H   000449H   000001H   BYTE   UNIT     EDATA          ?ED?DEVRUN?MAIN
00044AH   00044AH   000001H   BYTE   UNIT     EDATA          ?ED?GETVALVE?MAIN
L251 LINKER/LOCATER V4.66.93.0                                                        05/30/2024  09:54:01  PAGE 4


00044BH   00044BH   000001H   BYTE   UNIT     EDATA          ?ED?CHECKVALVE?MAIN
00044CH   00044CH   000001H   BYTE   UNIT     EDATA          ?ED?SENDREADFLOWCMD?MAIN
00044DH   00044DH   000001H   BYTE   UNIT     EDATA          ?ED?GETALARM?MAIN
00044EH   00044EH   000001H   BYTE   UNIT     EDATA          ?ED?SYNCMODBUSDEV?MAIN
00044FH   00044FH   000001H   BYTE   UNIT     EDATA          ?ED?REMPAGECTL?MAIN
000450H   000450H   000001H   BYTE   UNIT     EDATA          ?ED?PUTCHAR?UART
000451H   000451H   000001H   BYTE   UNIT     EDATA          ?ED?UART4HND?UART
000452H   000452H   000001H   BYTE   UNIT     EDATA          ?ED?GETLCDTIME?LCD
000453H   000453H   000001H   BYTE   UNIT     EDATA          ?ED?SETSTARTBTN?LCDAPP
000454H   000454H   000001H   BYTE   UNIT     EDATA          ?ED?GETRETCODE?LCDAPP
000455H   000455H   000001H   BYTE   UNIT     EDATA          ?ED?SHOWSTATUS?LCDAPP
000456H   000456H   000001H   BYTE   UNIT     EDATA          ?ED?SHOWREMCH?LCDAPP
000457H   000457H   000001H   BYTE   UNIT     EDATA          ?ED?SENDPARAM?LCDAPP
000458H   000458H   000001H   BYTE   UNIT     EDATA          ?ED?SENDCHANNELPARAM?LCDAPP
000459H   000459H   000001H   BYTE   UNIT     EDATA          ?ED?GETINPUTTIME?LCDAPP
00045AH   00045AH   000001H   BYTE   UNIT     EDATA          ?ED?MODBUSSAVEPARAM?MODBUSDEV
00045BH   00055AH   000100H   BYTE   UNIT     EDATA          ?STACK
00055BH   00FFFFH   00FAA5H   ---    ---      **GAP**
010000H   01024AH   00024BH   BYTE   INSEG    XDATA          ?XD?MODBUSDEV
01024BH   010486H   00023CH   BYTE   INSEG    XDATA          ?XD?LCDAPP
010487H   01069BH   000215H   BYTE   INSEG    XDATA          ?XD?MODBUSHOST
01069CH   01082BH   000190H   BYTE   INSEG    XDATA          ?XD?UART
01082CH   0109BBH   000190H   BYTE   INSEG    XDATA          ?XD?LCD
0109BCH   010AE4H   000129H   BYTE   INSEG    XDATA          ?XD?MAIN
010AE5H   010B50H   00006CH   BYTE   INSEG    XDATA          ?XD?FLOWMETER
010B51H   FEFFFFH   FDF4AFH   ---    ---      **GAP**
FF0000H   FF0002H   000003H   ---    OFFS..   CODE           ?CO?start251?4
FF0003H   FF0009H   000007H   BYTE   INSEG    CODE           ?PR?OPENPUMP?MAIN
FF000AH   FF000AH   000001H   BYTE   UNIT     CODE           ?CO?MAIN
FF000BH   FF000DH   000003H   ---    OFFS..   CODE           ?PR?IV?1
FF000EH   FF0020H   000013H   BYTE   INSEG    CODE           ?PR?LEDINIT?MAIN
FF0021H   FF0021H   000001H   BYTE   INSEG    CODE           ?PR?WRITEREG?LCDAPP
FF0022H   FF0022H   000001H   ---    ---      **GAP**
FF0023H   FF0025H   000003H   ---    OFFS..   CODE           ?PR?IV?4
FF0026H   FF0041H   00001CH   BYTE   INSEG    CODE           ?PR?RUNCHECK?MAIN
FF0042H   FF0042H   000001H   ---    ---      **GAP**
FF0043H   FF0045H   000003H   ---    OFFS..   CODE           ?PR?IV?8
FF0046H   FF008AH   000045H   BYTE   INSEG    CODE           ?PR?WRITEPARAM?MAIN
FF008BH   FF008DH   000003H   ---    OFFS..   CODE           ?PR?IV?17
FF008EH   FF0092H   000005H   BYTE   INSEG    CODE           ?PR?SWDWORD?LCD
FF0093H   FF0095H   000003H   ---    OFFS..   CODE           ?PR?IV?18
FF0096H   FF012AH   000095H   BYTE   INSEG    CODE           ?PR?MAIN?MAIN
FF012BH   FF012FH   000005H   ---    OFFS..   CODE           ?CO?ISR?1
FF0130H   FF0132H   000003H   ---    ---      **GAP**
FF0133H   FF0137H   000005H   ---    OFFS..   CODE           ?CO?ISR?2
FF0138H   FF0A9DH   000966H   BYTE   UNIT     CODE           ?C?LIB_CODE
FF0A9EH   FF0F3AH   00049DH   BYTE   INSEG    CODE           ?PR?READREG?LCDAPP
FF0F3BH   FF1253H   000319H   BYTE   INSEG    CODE           ?PR?CHECKALARM?MAIN
FF1254H   FF1432H   0001DFH   BYTE   INSEG    CODE           ?PR?VOLUMEMODE?MAIN
FF1433H   FF1600H   0001CEH   BYTE   INSEG    CODE           ?PR?TIMINGMODE?MAIN
FF1601H   FF179BH   00019BH   BYTE   INSEG    CODE           ?PR?GETFLOW?MAIN
FF179CH   FF1918H   00017DH   BYTE   INSEG    CODE           ?PR?REMPAGECTL?MAIN
FF1919H   FF1A8AH   000172H   BYTE   INSEG    CODE           ?PR?OUTCTL?MAIN
FF1A8BH   FF1BE1H   000157H   BYTE   INSEG    CODE           ?PR?CHANNEL_MANMODE?MAIN
FF1BE2H   FF1D23H   000142H   BYTE   UNIT     CODE           ?CO?TEMPER
FF1D24H   FF1E57H   000134H   BYTE   INSEG    CODE           ?PR?HOSTSENDCMD?MODBUSHOST
FF1E58H   FF1F88H   000131H   BYTE   INSEG    CODE           ?PR?GETVALVE?MAIN
FF1F89H   FF20A8H   000120H   BYTE   INSEG    CODE           ?PR?SENDPARAM?LCDAPP
FF20A9H   FF21BFH   000117H   BYTE   INSEG    CODE           ?PR?TIMERTASK?MAIN
FF21C0H   FF22D4H   000115H   BYTE   INSEG    CODE           ?PR?EEPROM_WRITE?EEPROM
FF22D5H   FF23E4H   000110H   BYTE   INSEG    CODE           ?PR?CHECKVALVE?MAIN
FF23E5H   FF24EEH   00010AH   BYTE   INSEG    CODE           ?PR?SHOWSTATUS?LCDAPP
FF24EFH   FF25F0H   000102H   BYTE   INSEG    CODE           ?PR?SENDCHANNELPARAM?LCDAPP
FF25F1H   FF26CEH   0000DEH   BYTE   INSEG    CODE           ?PR?SHOWDEVINFO?LCDAPP
FF26CFH   FF27A8H   0000DAH   BYTE   INSEG    CODE           ?PR?READFLOW?FLOWMETER
L251 LINKER/LOCATER V4.66.93.0                                                        05/30/2024  09:54:01  PAGE 5


FF27A9H   FF287CH   0000D4H   BYTE   INSEG    CODE           ?PR?READACK?MODBUSDEV
FF287DH   FF294EH   0000D2H   BYTE   INSEG    CODE           ?PR?PARAMDEF?MAIN
FF294FH   FF2A11H   0000C3H   BYTE   INSEG    CODE           ?PR?SETCURTIME?LCDAPP
FF2A12H   FF2ACBH   0000BAH   BYTE   INSEG    CODE           ?PR?CRC16CALC?MODBUS
FF2ACCH   FF2B82H   0000B7H   BYTE   INSEG    CODE           ?PR?RETURNSTART?LCDAPP
FF2B83H   FF2C37H   0000B5H   BYTE   INSEG    CODE           ?PR?LCDCMD?LCD
FF2C38H   FF2CE5H   0000AEH   BYTE   INSEG    CODE           ?PR?SETLCDTIME?LCD
FF2CE6H   FF2D91H   0000ACH   BYTE   INSEG    CODE           ?PR?STOPSAMP?MAIN
FF2D92H   FF2E39H   0000A8H   BYTE   INSEG    CODE           ?PR?DUMPCMD?MAIN
FF2E3AH   FF2EDCH   0000A3H   BYTE   INSEG    CODE           ?PR?DEVRUN?MAIN
FF2EDDH   FF2F73H   000097H   BYTE   INSEG    CODE           ?PR?STATUSCOLOR?LCDAPP
FF2F74H   FF2FFFH   00008CH   BYTE   INSEG    CODE           ?PR?GET_TEMPERATURE?TEMPER
FF3000H   FF3088H   000089H   BYTE   INSEG    CODE           ?PR?ABNORALAERM?MAIN
FF3089H   FF3111H   000089H   BYTE   INSEG    CODE           ?PR?MODEHINT?LCDAPP
FF3112H   FF3197H   000086H   BYTE   INSEG    CODE           ?PR?WRITEACK?MODBUSDEV
FF3198H   FF3215H   00007EH   BYTE   INSEG    CODE           ?PR?SYNCMODBUSDEV?MAIN
FF3216H   FF3291H   00007CH   BYTE   INSEG    CODE           ?PR?INITLCD?MAIN
FF3292H   FF3309H   000078H   BYTE   INSEG    CODE           ?PR?STARTSAMP?MAIN
FF330AH   FF3381H   000078H   BYTE   INSEG    CODE           ?PR?SETRUNTIME?LCDAPP
FF3382H   FF33F7H   000076H   BYTE   INSEG    CODE           ?PR?PACKAGEREG?MODBUSDEV
FF33F8H   FF346CH   000075H   BYTE   INSEG    CODE           ?PR?WRITEREGVALUE?MODBUSDEV
FF346DH   FF347FH   000013H   BYTE   UNIT     CODE           ?C_C51STARTUP
FF3480H   FF34D9H   00005AH   BYTE   UNIT     CODE           ?C_C51STARTUP?2
FF34DAH   FF34DCH   000003H   BYTE   UNIT     CODE           ?C_C51STARTUP?3
FF34DDH   FF3548H   00006CH   BYTE   INSEG    CODE           ?PR?EEPROM_READ?EEPROM
FF3549H   FF35AEH   000066H   BYTE   INSEG    CODE           ?PR?GETALARM?MAIN
FF35AFH   FF3612H   000064H   BYTE   INSEG    CODE           ?PR?VALIDLCDFRAME?LCD
FF3613H   FF3673H   000061H   BYTE   INSEG    CODE           ?PR?UPDATAUI?MAIN
FF3674H   FF36D4H   000061H   BYTE   INSEG    CODE           ?PR?OUTFLASH?MAIN
FF36D5H   FF372FH   00005BH   BYTE   INSEG    CODE           ?PR?HNDMODBUSRECV?MODBUSDEV
FF3730H   FF3789H   00005AH   BYTE   INSEG    CODE           ?PR?HNDINPUT?MAIN
FF378AH   FF37E3H   00005AH   BYTE   UNIT     CODE           ?CO?LCDAPP
FF37E4H   FF383AH   000057H   BYTE   INSEG    CODE           ?PR?UART2_INT?UART
FF383BH   FF3891H   000057H   BYTE   INSEG    CODE           ?PR?UART3_INT?UART
FF3892H   FF38E7H   000056H   BYTE   INSEG    CODE           ?PR?ADC_TEMP?TEMPER
FF38E8H   FF393CH   000055H   BYTE   INSEG    CODE           ?PR?POPWORD?LCD
FF393DH   FF3991H   000055H   BYTE   INSEG    CODE           ?PR?FLOWMETERACK?FLOWMETER
FF3992H   FF39E3H   000052H   BYTE   INSEG    CODE           ?PR?IOCTLTASK?MAIN
FF39E4H   FF3A32H   00004FH   BYTE   INSEG    CODE           ?PR?UART1_CONFIG?UART
FF3A33H   FF3A7FH   00004DH   BYTE   INSEG    CODE           ?PR?TASK1S?MAIN
FF3A80H   FF3ACCH   00004DH   BYTE   INSEG    CODE           ?PR?UART2HND?UART
FF3ACDH   FF3B19H   00004DH   BYTE   INSEG    CODE           ?PR?SETCHANNEL1MODE?LCDAPP
FF3B1AH   FF3B66H   00004DH   BYTE   INSEG    CODE           ?PR?SETCHANNEL2MODE?LCDAPP
FF3B67H   FF3BB3H   00004DH   BYTE   INSEG    CODE           ?PR?SETCHANNEL3MODE?LCDAPP
FF3BB4H   FF3C00H   00004DH   BYTE   INSEG    CODE           ?PR?SETCHANNEL4MODE?LCDAPP
FF3C01H   FF3C4DH   00004DH   BYTE   INSEG    CODE           ?PR?SETCHANNEL5MODE?LCDAPP
FF3C4EH   FF3C9AH   00004DH   BYTE   INSEG    CODE           ?PR?SETCHANNEL6MODE?LCDAPP
FF3C9BH   FF3CE7H   00004DH   BYTE   INSEG    CODE           ?PR?SETCHANNEL7MODE?LCDAPP
FF3CE8H   FF3D34H   00004DH   BYTE   INSEG    CODE           ?PR?SETCHANNEL8MODE?LCDAPP
FF3D35H   FF3D81H   00004DH   BYTE   INSEG    CODE           ?PR?SETSAMPMODE?LCDAPP
FF3D82H   FF3DCDH   00004CH   BYTE   INSEG    CODE           ?PR?PARAMCHECK?MAIN
FF3DCEH   FF3E19H   00004CH   BYTE   INSEG    CODE           ?PR?SETBKLIGHT?LCD
FF3E1AH   FF3E64H   00004BH   BYTE   INSEG    CODE           ?PR?UART4_INT?UART
FF3E65H   FF3EADH   000049H   BYTE   INSEG    CODE           ?PR?UART2_CONFIG?UART
FF3EAEH   FF3EF5H   000048H   BYTE   INSEG    CODE           ?PR?HNDLCDFRAME?LCD
FF3EF6H   FF3F3CH   000047H   BYTE   INSEG    CODE           ?PR?RUNLED?MAIN
FF3F3DH   FF3F83H   000047H   BYTE   INSEG    CODE           ?PR?DELAY?MAIN
FF3F84H   FF3FCAH   000047H   BYTE   INSEG    CODE           ?PR?UART1_INT?UART
FF3FCBH   FF4010H   000046H   BYTE   INSEG    CODE           ?PR?UART3SEND?UART
FF4011H   FF4056H   000046H   BYTE   INSEG    CODE           ?PR?UART4SEND?UART
FF4057H   FF409BH   000045H   BYTE   INSEG    CODE           ?PR?READPARAM?MAIN
FF409CH   FF40E0H   000045H   BYTE   INSEG    CODE           ?PR?ENTERPAGE?LCD
FF40E1H   FF4124H   000044H   BYTE   INSEG    CODE           ?PR?GET_ADC12BITRESULT?TEMPER
FF4125H   FF4164H   000040H   BYTE   INSEG    CODE           ?PR?UART2SEND?UART
FF4165H   FF41A3H   00003FH   BYTE   INSEG    CODE           ?PR?SENDTCPFRAME?MODBUSHOST
L251 LINKER/LOCATER V4.66.93.0                                                        05/30/2024  09:54:01  PAGE 6


FF41A4H   FF41E0H   00003DH   BYTE   INSEG    CODE           ?PR?TIMER0INT?MAIN
FF41E1H   FF421DH   00003DH   BYTE   INSEG    CODE           ?PR?MODBUSSAVEPARAM?MODBUSDEV
FF421EH   FF425AH   00003DH   BYTE   INSEG    CODE           ?PR?POPREG?MODBUSHOST
FF425BH   FF4295H   00003BH   BYTE   INSEG    CODE           ?PR?DEBUGINT?MAIN
FF4296H   FF42CFH   00003AH   BYTE   INSEG    CODE           ?PR?IOINIT?MAIN
FF42D0H   FF4308H   000039H   BYTE   INSEG    CODE           ?PR?FLOWTASK?MAIN
FF4309H   FF4341H   000039H   BYTE   INSEG    CODE           ?PR?UART4HND?UART
FF4342H   FF4376H   000035H   BYTE   INSEG    CODE           ?PR?UART3_CONFIG?UART
FF4377H   FF43AAH   000034H   BYTE   INSEG    CODE           ?PR?UART4_CONFIG?UART
FF43ABH   FF43D9H   00002FH   BYTE   INSEG    CODE           ?PR?MEMCMP?_?MEMCMP
FF43DAH   FF4406H   00002DH   BYTE   INSEG    CODE           ?PR?EEPROM_SECTORERASE?EEPROM
FF4407H   FF4433H   00002DH   BYTE   INSEG    CODE           ?PR?CHECKDATALEN?LCD
FF4434H   FF4460H   00002DH   BYTE   INSEG    CODE           ?PR?GETLCDTIME?LCD
FF4461H   FF448CH   00002CH   BYTE   INSEG    CODE           ?PR?SAMPCTL?LCDAPP
FF448DH   FF44B8H   00002CH   BYTE   INSEG    CODE           ?PR?SETSTARTBTN?LCDAPP
FF44B9H   FF44E3H   00002BH   BYTE   INSEG    CODE           ?PR?SENDBUFFER?MODBUSHOST
FF44E4H   FF450CH   000029H   BYTE   INSEG    CODE           ?PR?VERIFYPASSWORD?LCDAPP
FF450DH   FF4534H   000028H   BYTE   INSEG    CODE           ?PR?CHECKMODESTOP?MAIN
FF4535H   FF455CH   000028H   BYTE   INSEG    CODE           ?PR?SYSINIT?MAIN
FF455DH   FF4583H   000027H   BYTE   INSEG    CODE           ?PR?STARTBUTTON?LCDAPP
FF4584H   FF45AAH   000027H   BYTE   INSEG    CODE           ?PR?VALIDRTUFRAME?MODBUS
FF45ABH   FF45D1H   000027H   BYTE   INSEG    CODE           ?PR?SENDREADFLOW?FLOWMETER
FF45D2H   FF45F7H   000026H   BYTE   INSEG    CODE           ?PR?HIDEMODULE?LCD
FF45F8H   FF461CH   000025H   BYTE   INSEG    CODE           ?PR?UART3HND?UART
FF461DH   FF4641H   000025H   BYTE   INSEG    CODE           ?PR?MEMCPY?_?MEMCPY
FF4642H   FF4665H   000024H   BYTE   INSEG    CODE           ?PR?SHOWMODULE?LCD
FF4666H   FF4688H   000023H   BYTE   INSEG    CODE           ?PR?SENDREADFLOWCMD?MAIN
FF4689H   FF46ABH   000023H   BYTE   INSEG    CODE           ?PR?GETINPUTTIME?LCDAPP
FF46ACH   FF46CDH   000022H   BYTE   INSEG    CODE           ?PR?SHOWFLOW?LCDAPP
FF46CEH   FF46EEH   000021H   BYTE   INSEG    CODE           ?PR?SETREGVALUE?MODBUSDEV
FF46EFH   FF470EH   000020H   BYTE   INSEG    CODE           ?PR?GETRETCODE?LCDAPP
FF470FH   FF472DH   00001FH   BYTE   INSEG    CODE           ?PR?SETTEXTCOLOR?LCD
FF472EH   FF474CH   00001FH   BYTE   INSEG    CODE           ?PR?SHOWEMSTOP?LCDAPP
FF474DH   FF4767H   00001BH   BYTE   INSEG    CODE           ?PR?CLEARREVBUF?LCD
FF4768H   FF4781H   00001AH   BYTE   INSEG    CODE           ?PR?SHOWREMCH?LCDAPP
FF4782H   FF479BH   00001AH   BYTE   INSEG    CODE           ?PR?MEMSET?_?MEMSET
FF479CH   FF47B4H   000019H   BYTE   INSEG    CODE           ?PR?CLOSEVALVE?MAIN
FF47B5H   FF47CDH   000019H   BYTE   INSEG    CODE           ?PR?SHOWTEMP?LCDAPP
FF47CEH   FF47E5H   000018H   BYTE   INSEG    CODE           ?PR?TIMER0INIT?MAIN
FF47E6H   FF47FDH   000018H   BYTE   INSEG    CODE           ?PR?EEPROM_TRIG?EEPROM
FF47FEH   FF4815H   000018H   BYTE   INSEG    CODE           ?PR?ADC_INIT?TEMPER
FF4816H   FF482CH   000017H   BYTE   INSEG    CODE           ?PR?ERROR?MAIN
FF482DH   FF4843H   000017H   BYTE   INSEG    CODE           ?PR?HNDLCDDATA?LCD
FF4844H   FF4859H   000016H   BYTE   INSEG    CODE           ?PR?DISABLEEEPROM?EEPROM
FF485AH   FF486FH   000016H   BYTE   INSEG    CODE           ?PR?CLEARUART2BUF?UART
FF4870H   FF4885H   000016H   BYTE   INSEG    CODE           ?PR?CLEARUART3BUF?UART
FF4886H   FF489BH   000016H   BYTE   INSEG    CODE           ?PR?UART1HND?UART
FF489CH   FF48ADH   000012H   BYTE   INSEG    CODE           ?PR?CLEARUART1BUF?UART
FF48AEH   FF48BFH   000012H   BYTE   INSEG    CODE           ?PR?CLEARUART4BUF?UART
FF48C0H   FF48CDH   00000EH   BYTE   INSEG    CODE           ?PR?STRLEN?_?STRLEN
FF48CEH   FF48D9H   00000CH   BYTE   INSEG    CODE           ?PR?DEBUGMSG?MAIN
FF48DAH   FF48DFH   000006H   BYTE   INSEG    CODE           ?PR?CLOSEPUMP?MAIN
FF48E0H   FF48E4H   000005H   BYTE   INSEG    CODE           ?PR?SWWORD?LCD
FF48E5H   FF48E9H   000005H   BYTE   INSEG    CODE           ?PR?REGSW?MODBUS
FF48EAH   FF48EDH   000004H   BYTE   INSEG    CODE           ?PR?SAVEPARAM?MAIN
FF48EEH   FF48F1H   000004H   BYTE   INSEG    CODE           ?PR?REMCTLTASK?MAIN
FF48F2H   FF48F5H   000004H   BYTE   UNIT     CONST          ?CO?PRINTF
FF48F6H   FF4C0FH   00031AH   BYTE   UNIT     HCONST         ?C_INITHDATA
FF4C10H   FF4D64H   000155H   BYTE   UNIT     HCONST         ?C_INITEDATA
FF4D65H   FF4DE2H   00007EH   BYTE   UNIT     HCONST         ?HC?LCDAPP
FF4DE3H   FF4E03H   000021H   BYTE   UNIT     HCONST         ?HC?LCD
FF4E04H   FF4E11H   00000EH   BYTE   UNIT     HCONST         ?HC?MAIN
FF4E12H   FF4E19H   000008H   BYTE   UNIT     HCONST         ?HC?MODBUS
FF4E1AH   FF4E1FH   000006H   BYTE   UNIT     HCONST         ?HC?MODBUSDEV
FF4E20H   FF4E25H   000006H   BYTE   UNIT     HCONST         ?HC?MODBUSHOST
L251 LINKER/LOCATER V4.66.93.0                                                        05/30/2024  09:54:01  PAGE 7



* * * * * * * * *   R E M O V E D     S E G M E N T S   * * * * * * * *
   *DEL*:           00003DH   BYTE   INSEG    CODE           ?PR?SENSORINIT?MAIN
   *DEL*:           000006H   BYTE   INSEG    CODE           ?PR?POWEROFF?MAIN
   *DEL*:           000043H   BYTE   INSEG    CODE           ?PR?GETINPUT?MAIN
   *DEL*:           000018H   BYTE   INSEG    CODE           ?PR?DELAY_MS?MAIN
   *DEL*:           000040H   BYTE   INSEG    CODE           ?PR?UART1SEND?UART
   *DEL*:           000011H   BYTE   INSEG    CODE           ?PR?PUTCHAR?UART
   *DEL*:           000048H   BYTE   INSEG    CODE           ?PR?SETCHCOUNT?LCDAPP
   *DEL*:           000038H   BYTE   INSEG    CODE           ?PR?VALIDTCPFRAME?MODBUS
   *DEL*:           00006DH   BYTE   INSEG    CODE           ?PR?SWENDIAN?MODBUS
   *DEL*:           000023H   BYTE   INSEG    CODE           ?PR?BYTESTODWORD?MODBUS
   *DEL*:           000038H   BYTE   INSEG    CODE           ?PR?BYTESTOFLOAT?MODBUS
   *DEL*:           000038H   BYTE   INSEG    CODE           ?PR?FLOATTOBYTES?MODBUS
   *DEL*:           000023H   BYTE   INSEG    CODE           ?PR?BYTESTOWORD?MODBUS
   *DEL*:           00002BH   BYTE   INSEG    CODE           ?PR?SWENDIANW?MODBUS
   *DEL*:           000051H   BYTE   INSEG    CODE           ?PR?BYTECONVERT?MODBUS
   *DEL*:           000031H   BYTE   INSEG    CODE           ?PR?PACKAGEDWORDVALUE?MODBUSDEV
   *DEL*:           000042H   BYTE   INSEG    CODE           ?PR?PACKAGEFLOATVALUE?MODBUSDEV
   *DEL*:           000049H   BYTE   INSEG    CODE           ?PR?PACKAGEWORDVALUE?MODBUSDEV



OVERLAY MAP OF MODULE:   .\obj\PileCore (ISR)


FUNCTION/MODULE                  EDATA_GROUP
--> CALLED FUNCTION/MODULE       START  STOP
============================================
Timer0Int/main                   ----- -----

*** NEW ROOT *******************

UART1_int/uart                   ----- -----

*** NEW ROOT *******************

UART2_int/uart                   ----- -----

*** NEW ROOT *******************

UART3_int/uart                   ----- -----

*** NEW ROOT *******************

UART4_int/uart                   ----- -----

*** NEW ROOT *******************

?C_C51STARTUP                    ----- -----

*** NEW ROOT *******************

?C_C51STARTUP?3                  ----- -----
  +--> main/main

main/main                        ----- -----
  +--> SysInit/main
  +--> IoInit/main
  +--> LedInit/main
  +--> Delay/main
  +--> Timer0Init/main
  +--> Adc_Init/Temper
  +--> UART1_config/uart
  +--> UART2_config/uart
L251 LINKER/LOCATER V4.66.93.0                                                        05/30/2024  09:54:01  PAGE 8


  +--> UART3_config/uart
  +--> UART4_config/uart
  +--> ClearUart1Buf/uart
  +--> ClearUart2Buf/uart
  +--> ClearUart3Buf/uart
  +--> ClearUart4Buf/uart
  +--> ReadParam/main
  +--> SyncModBusDev/main
  +--> InitLcd/main
  +--> TimerTask/main
  +--> HndInput/main
  +--> Uart1Hnd/uart
  +--> Uart2Hnd/uart
  +--> Uart3Hnd/uart
  +--> FlowTask/main
  +--> Uart4Hnd/uart
  +--> RemCtlTask/main

SysInit/main                     ----- -----

IoInit/main                      ----- -----

LedInit/main                     ----- -----
  +--> CloseValve/main

CloseValve/main                  ----- -----

Delay/main                       ----- -----

Timer0Init/main                  ----- -----

Adc_Init/Temper                  ----- -----

UART1_config/uart                ----- -----

UART2_config/uart                ----- -----

UART3_config/uart                ----- -----

UART4_config/uart                ----- -----

ClearUart1Buf/uart               ----- -----
  +--> memset?_/memset

memset?_/memset                  ----- -----

ClearUart2Buf/uart               ----- -----
  +--> memset?_/memset

ClearUart3Buf/uart               ----- -----
  +--> memset?_/memset

ClearUart4Buf/uart               ----- -----
  +--> memset?_/memset

ReadParam/main                   ----- -----
  +--> EEPROM_read/EepRom
  +--> ParamCheck/main
  +--> ParamDef/main
  +--> WriteParam/main

EEPROM_read/EepRom               ----- -----
  +--> EEPROM_Trig/EepRom
  +--> DisableEEPROM/EepRom

L251 LINKER/LOCATER V4.66.93.0                                                        05/30/2024  09:54:01  PAGE 9


EEPROM_Trig/EepRom               ----- -----

DisableEEPROM/EepRom             ----- -----

ParamCheck/main                  ----- -----

ParamDef/main                    ----- -----

WriteParam/main                  ----- -----
  +--> EEPROM_SectorErase/EepRom
  +--> ParamCheck/main
  +--> EEPROM_write/EepRom
  +--> Error/main

EEPROM_SectorErase/EepRom        ----- -----
  +--> EEPROM_Trig/EepRom
  +--> DisableEEPROM/EepRom

EEPROM_write/EepRom              ----- -----
  +--> EEPROM_Trig/EepRom
  +--> DisableEEPROM/EepRom

Error/main                       ----- -----
  +--> Delay/main

SyncModBusDev/main               ----- -----
  +--> memset?_/memset
  +--> GetAlarm/main

GetAlarm/main                    ----- -----

InitLcd/main                     ----- -----
  +--> memset?_/memset
  +--> ModeHint/LcdApp
  +--> Delay/main
  +--> HideModule/Lcd
  +--> UpdataUI/main
  +--> SendParam/LcdApp
  +--> SendChannelParam/LcdApp
  +--> SetBkLight/Lcd
  +--> ShowDevInfo/LcdApp

ModeHint/LcdApp                  ----- -----
  +--> memset?_/memset
  +--> SPRINTF/SPRINTF
  +--> LcdCmd/Lcd

SPRINTF/SPRINTF                  0231H 0258H
  +--> OUT/SPRINTF

OUT/SPRINTF                      ----- -----
  +--> PUTCH/SPRINTF

PUTCH/SPRINTF                    ----- -----

LcdCmd/Lcd                       ----- -----
  +--> memset?_/memset
  +--> SwWord/Lcd
  +--> memcpy?_/memcpy
  +--> DebugMsg/main
  +--> Uart2Send/uart

SwWord/Lcd                       ----- -----

memcpy?_/memcpy                  ----- -----
L251 LINKER/LOCATER V4.66.93.0                                                        05/30/2024  09:54:01  PAGE 10



DebugMsg/main                    ----- -----
  +--> strlen?_/STRLEN

strlen?_/STRLEN                  ----- -----

Uart2Send/uart                   ----- -----

HideModule/Lcd                   ----- -----
  +--> LcdCmd/Lcd

UpdataUI/main                    ----- -----
  +--> ShowStatus/LcdApp
  +--> Delay/main
  +--> StatusColor/LcdApp

ShowStatus/LcdApp                ----- -----
  +--> memset?_/memset
  +--> SPRINTF/SPRINTF
  +--> LcdCmd/Lcd

StatusColor/LcdApp               ----- -----
  +--> Delay/main
  +--> SwWord/Lcd
  +--> SetTextColor/Lcd

SetTextColor/Lcd                 ----- -----
  +--> LcdCmd/Lcd

SendParam/LcdApp                 ----- -----
  +--> SwWord/Lcd
  +--> memset?_/memset
  +--> SPRINTF/SPRINTF
  +--> LcdCmd/Lcd

SendChannelParam/LcdApp          ----- -----
  +--> memset?_/memset
  +--> SwWord/Lcd
  +--> SPRINTF/SPRINTF
  +--> LcdCmd/Lcd

SetBkLight/Lcd                   ----- -----
  +--> PopWord/Lcd
  +--> LcdCmd/Lcd

PopWord/Lcd                      ----- -----
  +--> memcpy?_/memcpy
  +--> SwWord/Lcd

ShowDevInfo/LcdApp               ----- -----
  +--> memset?_/memset
  +--> SPRINTF/SPRINTF
  +--> LcdCmd/Lcd

TimerTask/main                   ----- -----
  +--> Task1s/main
  +--> RunLed/main
  +--> IoCtlTask/main
  +--> GetValve/main
  +--> ShowRemCh/LcdApp

Task1s/main                      ----- -----
  +--> ADC_Temp/Temper
  +--> GetRetCode/LcdApp
  +--> DevRun/main
L251 LINKER/LOCATER V4.66.93.0                                                        05/30/2024  09:54:01  PAGE 11



ADC_Temp/Temper                  ----- -----
  +--> Get_ADC12bitResult/Temper
  +--> Get_Temperature/Temper

Get_ADC12bitResult/Temper        ----- -----

Get_Temperature/Temper           ----- -----

GetRetCode/LcdApp                ----- -----
  +--> LcdCmd/Lcd

DevRun/main                      ----- -----
  +--> GetFlow/main
  +--> ShowFlow/LcdApp
  +--> RunCheck/main
  +--> CheckAlarm/main

GetFlow/main                     ----- -----
  +--> SwWord/Lcd
  +--> SwDWord/Lcd

SwDWord/Lcd                      ----- -----

ShowFlow/LcdApp                  ----- -----
  +--> SetRunTime/LcdApp
  +--> LcdCmd/Lcd

SetRunTime/LcdApp                ----- -----
  +--> ?C?ULIDIV/?C?ULDIV
  +--> memset?_/memset
  +--> SPRINTF/SPRINTF

?C?ULIDIV/?C?ULDIV               ----- -----

RunCheck/main                    ----- -----
  +--> TimingMode/main
  +--> VolumeMode/main
  +--> Channel_ManMode/main
  +--> SendParam/LcdApp

TimingMode/main                  ----- -----
  +--> CheckModeStop/main

CheckModeStop/main               ----- -----
  +--> StopSamp/main

StopSamp/main                    ----- -----
  +--> ClosePump/main
  +--> memset?_/memset
  +--> SetStartBtn/LcdApp
  +--> ShowModule/Lcd
  +--> SaveParam/main

ClosePump/main                   ----- -----

SetStartBtn/LcdApp               ----- -----
  +--> LcdCmd/Lcd

ShowModule/Lcd                   ----- -----
  +--> SwWord/Lcd
  +--> LcdCmd/Lcd

SaveParam/main                   ----- -----
  +--> WriteParam/main
L251 LINKER/LOCATER V4.66.93.0                                                        05/30/2024  09:54:01  PAGE 12



VolumeMode/main                  ----- -----
  +--> CheckModeStop/main

Channel_ManMode/main             ----- -----
  +--> CheckModeStop/main

CheckAlarm/main                  ----- -----
  +--> memcmp?_/memcmp
  +--> Delay/main
  +--> ShowStatus/LcdApp
  +--> AbnorAlaerm/main
  +--> StatusColor/LcdApp
  +--> memcpy?_/memcpy

memcmp?_/memcmp                  ----- -----

AbnorAlaerm/main                 ----- -----

RunLed/main                      ----- -----

IoCtlTask/main                   ----- -----
  +--> OutFlash/main
  +--> OutCtl/main

OutFlash/main                    ----- -----
  +--> OutCtl/main

OutCtl/main                      ----- -----

GetValve/main                    ----- -----
  +--> CheckValve/main

CheckValve/main                  ----- -----

ShowRemCh/LcdApp                 ----- -----
  +--> LcdCmd/Lcd

HndInput/main                    ----- -----
  +--> Delay/main
  +--> StopSamp/main
  +--> ShowEmStop/LcdApp

ShowEmStop/LcdApp                ----- -----
  +--> LcdCmd/Lcd

Uart1Hnd/uart                    ----- -----
  +--> ClearUart1Buf/uart

Uart2Hnd/uart                    ----- -----
  +--> DumpCmd/main
  +--> memcpy?_/memcpy
  +--> ClearUart2Buf/uart
  +--> HndLcdData/Lcd

DumpCmd/main                     ----- -----
  +--> memset?_/memset
  +--> strlen?_/STRLEN
  +--> SPRINTF/SPRINTF
  +--> DebugMsg/main

HndLcdData/Lcd                   ----- -----
  +--> HndLcdFrame/Lcd
  +--> ValidLcdFrame/Lcd
  +--> ClearRevBuf/Lcd
L251 LINKER/LOCATER V4.66.93.0                                                        05/30/2024  09:54:01  PAGE 13



HndLcdFrame/Lcd                  ----- -----
  +--> ReadReg/LcdApp
  +--> WriteReg/LcdApp

ReadReg/LcdApp                   ----- -----
  +--> SwWord/Lcd
  +--> DebugInt/main
  +--> StartButton/LcdApp
  +--> VerifyPassWord/LcdApp
  +--> SampCtl/LcdApp
  +--> ReturnStart/LcdApp
  +--> GetLcdTime/Lcd
  +--> HideModule/Lcd
  +--> PopWord/Lcd
  +--> SetBkLight/Lcd
  +--> SetSampMode/LcdApp
  +--> SetChannel1Mode/LcdApp
  +--> SetChannel2Mode/LcdApp
  +--> SetChannel3Mode/LcdApp
  +--> SetChannel4Mode/LcdApp
  +--> SetChannel5Mode/LcdApp
  +--> SetChannel6Mode/LcdApp
  +--> SetChannel7Mode/LcdApp
  +--> SetChannel8Mode/LcdApp
  +--> ModeHint/LcdApp
  +--> UpdataUI/main
  +--> SaveParam/main
  +--> ShowDevInfo/LcdApp
  +--> GetInputTime/LcdApp
  +--> SetLcdTime/Lcd
  +--> SetCurTime/LcdApp
  +--> ShowTemp/LcdApp

DebugInt/main                    ----- -----
  +--> memset?_/memset
  +--> SPRINTF/SPRINTF
  +--> DebugMsg/main

StartButton/LcdApp               ----- -----
  +--> CheckDataLen/Lcd
  +--> PopWord/Lcd
  +--> StartSamp/main

CheckDataLen/Lcd                 ----- -----

StartSamp/main                   ----- -----
  +--> memset?_/memset
  +--> OpenPump/main
  +--> memcpy?_/memcpy
  +--> ShowStatus/LcdApp
  +--> StatusColor/LcdApp
  +--> SetStartBtn/LcdApp

OpenPump/main                    ----- -----

VerifyPassWord/LcdApp            ----- -----
  +--> CheckDataLen/Lcd
  +--> PopWord/Lcd
  +--> EnterPage/Lcd

EnterPage/Lcd                    ----- -----
  +--> memcpy?_/memcpy
  +--> LcdCmd/Lcd

L251 LINKER/LOCATER V4.66.93.0                                                        05/30/2024  09:54:01  PAGE 14


SampCtl/LcdApp                   ----- -----
  +--> CheckDataLen/Lcd
  +--> PopWord/Lcd
  +--> StartSamp/main
  +--> StopSamp/main
  +--> HideModule/Lcd

ReturnStart/LcdApp               ----- -----
  +--> CheckDataLen/Lcd
  +--> PopWord/Lcd
  +--> StopSamp/main
  +--> Delay/main
  +--> memset?_/memset
  +--> LcdCmd/Lcd
  +--> EnterPage/Lcd
  +--> StartSamp/main

GetLcdTime/Lcd                   ----- -----
  +--> DebugMsg/main
  +--> LcdCmd/Lcd

SetSampMode/LcdApp               ----- -----
  +--> PopWord/Lcd
  +--> memset?_/memset
  +--> SPRINTF/SPRINTF
  +--> LcdCmd/Lcd

SetChannel1Mode/LcdApp           ----- -----
  +--> PopWord/Lcd
  +--> memset?_/memset
  +--> SPRINTF/SPRINTF
  +--> LcdCmd/Lcd

SetChannel2Mode/LcdApp           ----- -----
  +--> PopWord/Lcd
  +--> memset?_/memset
  +--> SPRINTF/SPRINTF
  +--> LcdCmd/Lcd

SetChannel3Mode/LcdApp           ----- -----
  +--> PopWord/Lcd
  +--> memset?_/memset
  +--> SPRINTF/SPRINTF
  +--> LcdCmd/Lcd

SetChannel4Mode/LcdApp           ----- -----
  +--> PopWord/Lcd
  +--> memset?_/memset
  +--> SPRINTF/SPRINTF
  +--> LcdCmd/Lcd

SetChannel5Mode/LcdApp           ----- -----
  +--> PopWord/Lcd
  +--> memset?_/memset
  +--> SPRINTF/SPRINTF
  +--> LcdCmd/Lcd

SetChannel6Mode/LcdApp           ----- -----
  +--> PopWord/Lcd
  +--> memset?_/memset
  +--> SPRINTF/SPRINTF
  +--> LcdCmd/Lcd

SetChannel7Mode/LcdApp           ----- -----
  +--> PopWord/Lcd
L251 LINKER/LOCATER V4.66.93.0                                                        05/30/2024  09:54:01  PAGE 15


  +--> memset?_/memset
  +--> SPRINTF/SPRINTF
  +--> LcdCmd/Lcd

SetChannel8Mode/LcdApp           ----- -----
  +--> PopWord/Lcd
  +--> memset?_/memset
  +--> SPRINTF/SPRINTF
  +--> LcdCmd/Lcd

GetInputTime/LcdApp              ----- -----
  +--> LcdCmd/Lcd

SetLcdTime/Lcd                   ----- -----
  +--> CheckDataLen/Lcd
  +--> PopWord/Lcd
  +--> LcdCmd/Lcd

SetCurTime/LcdApp                ----- -----
  +--> CheckDataLen/Lcd
  +--> memcpy?_/memcpy
  +--> SwWord/Lcd
  +--> LcdCmd/Lcd

ShowTemp/LcdApp                  ----- -----
  +--> LcdCmd/Lcd

WriteReg/LcdApp                  ----- -----

ValidLcdFrame/Lcd                ----- -----
  +--> SwWord/Lcd

ClearRevBuf/Lcd                  ----- -----
  +--> memset?_/memset

Uart3Hnd/uart                    ----- -----
  +--> FlowMeterAck/FlowMeter
  +--> ClearUart3Buf/uart

FlowMeterAck/FlowMeter           ----- -----
  +--> ValidRtuFrame/ModBus
  +--> memset?_/memset
  +--> memcpy?_/memcpy
  +--> ReadFlow/FlowMeter

ValidRtuFrame/ModBus             ----- -----
  +--> CRC16Calc/ModBus

CRC16Calc/ModBus                 ----- -----

ReadFlow/FlowMeter               ----- -----
  +--> PopReg/ModBusHost

PopReg/ModBusHost                ----- -----
  +--> memcpy?_/memcpy
  +--> RegSw/ModBus

RegSw/ModBus                     ----- -----

FlowTask/main                    ----- -----
  +--> SendReadFlowCmd/main

SendReadFlowCmd/main             ----- -----
  +--> SendReadFlow/FlowMeter

L251 LINKER/LOCATER V4.66.93.0                                                        05/30/2024  09:54:01  PAGE 16


SendReadFlow/FlowMeter           ----- -----
  +--> HostSendCmd/ModBusHost

HostSendCmd/ModBusHost           ----- -----
  +--> memset?_/memset
  +--> RegSw/ModBus
  +--> memcpy?_/memcpy
  +--> CRC16Calc/ModBus
  +--> SendBuffer/ModBusHost

SendBuffer/ModBusHost            ----- -----
  +--> SendTcpFrame/ModBusHost
  +--> Uart3Send/uart

SendTcpFrame/ModBusHost          ----- -----
  +--> memcpy?_/memcpy

Uart3Send/uart                   ----- -----

Uart4Hnd/uart                    ----- -----
  +--> HndModBusRecv/ModBusDev
  +--> ClearUart4Buf/uart

HndModBusRecv/ModBusDev          ----- -----
  +--> ValidRtuFrame/ModBus
  +--> memset?_/memset
  +--> memcpy?_/memcpy
  +--> ReadAck/ModBusDev
  +--> SetRegValue/ModBusDev

ReadAck/ModBusDev                ----- -----
  +--> memset?_/memset
  +--> PackageReg/ModBusDev
  +--> CRC16Calc/ModBus
  +--> Uart4Send/uart

PackageReg/ModBusDev             ----- -----
  +--> SyncModBusDev/main
  +--> memcpy?_/memcpy

Uart4Send/uart                   ----- -----

SetRegValue/ModBusDev            ----- -----
  +--> WriteRegValue/ModBusDev
  +--> WriteAck/ModBusDev

WriteRegValue/ModBusDev          ----- -----
  +--> memcpy?_/memcpy
  +--> ModBusSaveParam/ModBusDev

ModBusSaveParam/ModBusDev        ----- -----
  +--> WriteParam/main

WriteAck/ModBusDev               ----- -----
  +--> memset?_/memset
  +--> RegSw/ModBus
  +--> CRC16Calc/ModBus
  +--> Uart4Send/uart

RemCtlTask/main                  ----- -----
  +--> RemPageCtl/main

RemPageCtl/main                  ----- -----
  +--> EnterPage/Lcd
  +--> StartSamp/main
L251 LINKER/LOCATER V4.66.93.0                                                        05/30/2024  09:54:01  PAGE 17


  +--> memset?_/memset
  +--> StopSamp/main
  +--> SendParam/LcdApp
  +--> ModeHint/LcdApp
  +--> ClosePump/main

*** NEW ROOT *******************

?C_C51STARTUP?2                  ----- -----



PUBLIC SYMBOLS OF MODULE:  .\obj\PileCore (ISR)


      VALUE       CLASS    TYPE      PUBLIC SYMBOL NAME
      =================================================
      00FF0A7BH   CODE     ---       ?C?BMOVENP
      00FF0A79H   CODE     ---       ?C?BMOVENP8
      00FF039AH   CODE     NEAR LAB  ?C?CASTF
      000000FFH   NUMBER   ---       ?C?CODESEG
      00FF0367H   CODE     NEAR LAB  ?C?FCASTC
      00FF0362H   CODE     NEAR LAB  ?C?FCASTI
      00FF035DH   CODE     NEAR LAB  ?C?FCASTL
      00FF013EH   CODE     ---       ?C?FPADD
      00FF0319H   CODE     ---       ?C?FPCMP
      00FF0317H   CODE     ---       ?C?FPCMP3
      00FF0892H   CODE     ---       ?C?FPCONVERT
      00FF0296H   CODE     ---       ?C?FPDIV
      00FF03F7H   CODE     ---       ?C?FPGETOPN2
      00FF01F6H   CODE     ---       ?C?FPMUL
      00FF0434H   CODE     ---       ?C?FPNANRESULT
      00FF043CH   CODE     ---       ?C?FPOVERFLOW
      00FF0410H   CODE     ---       ?C?FPRESULT
      00FF0426H   CODE     ---       ?C?FPRESULT2
      00FF094AH   CODE     ---       ?C?FPROUND
      00FF013BH   CODE     ---       ?C?FPSUB
      00FF0439H   CODE     ---       ?C?FPUNDERFLOW
      00FF09BDH   CODE     ---       ?C?FTNPWR
      00FF3480H   CODE     ---       ?C?INITEDATA
      00FF4D63H   HCONST   WORD      ?C?INITEDATA_END
      00FF34A9H   CODE     ---       ?C?INITHDATA
      00FF4C0EH   HCONST   WORD      ?C?INITHDATA_END
      00FF0475H   CODE     ---       ?C?PRNFMT
      00FF09F4H   CODE     ---       ?C?SIDIV
      00FF0000H   CODE     ---       ?C?STARTUP
      00FF0A28H   CODE     NEAR LAB  ?C?ULDIV
      00FF0A26H   CODE     NEAR LAB  ?C?ULIDIV
      00000001H   NUMBER   ---       ?C?XDATASEG
      00FF0000H   CODE     ---       ?C_STARTUP
      0000030DH   EDATA    BYTE      ?EEPROM_read?BYTE
      00000287H   EDATA    BYTE      ?EEPROM_write?BYTE
      000002AAH   EDATA    BYTE      ?HostSendCmd?BYTE
      00000259H   EDATA    ---       ?sprintf?BYTE
      00FF3000H   CODE     ---       AbnorAlaerm
*SFR* 000000BCH   DATA     BYTE      ADC_CONTR
*SFR* 000000BCH.5 DATA     BIT       ADC_FLAG
      00FF47FEH   CODE     ---       Adc_Init
*SFR* 000000BDH   DATA     BYTE      ADC_RES
*SFR* 000000BEH   DATA     BYTE      ADC_RESL
      00FF3892H   CODE     ---       ADC_Temp
*SFR* 000000DEH   DATA     BYTE      ADCCFG
*SFR* 000000EFH   DATA     BYTE      AUXINTIF
*SFR* 0000008EH   DATA     BYTE      AUXR
*SFR* 00000097H   DATA     BYTE      AUXR2
L251 LINKER/LOCATER V4.66.93.0                                                        05/30/2024  09:54:01  PAGE 18


      00000020H.0 BIT      BIT       B_TX1_Busy
      00000020H.1 BIT      BIT       B_TX2_Busy
      00000020H.2 BIT      BIT       B_TX3_Busy
      00000020H.3 BIT      BIT       B_TX4_Busy
*DEL*:00000000H   CODE     ---       ByteConvert
*DEL*:00000000H   CODE     ---       BytesToDWord
*DEL*:00000000H   CODE     ---       BytesToFloat
*DEL*:00000000H   CODE     ---       BytesToWord
*SFR* 000000F1H   DATA     BYTE      CANICR
      00FF1A8BH   CODE     ---       Channel_ManMode
      000002A1H   EDATA    ---       ChannelAlarm
      000001E1H   EDATA    ---       ChannelError
      0001029FH   XDATA    ---       ChannelParam
      000103F7H   XDATA    ---       ChannelStatus
      000001FFH   EDATA    BYTE      ChannelStop
      00FF0F3BH   CODE     ---       CheckAlarm
      00FF4407H   CODE     ---       CheckDataLen
      00FF450DH   CODE     ---       CheckModeStop
      00FF22D5H   CODE     ---       CheckValve
      000001FCH   EDATA    BYTE      ChNum
      00FF474DH   CODE     ---       ClearRevBuf
      00FF489CH   CODE     ---       ClearUart1Buf
      00FF485AH   CODE     ---       ClearUart2Buf
      00FF4870H   CODE     ---       ClearUart3Buf
      00FF48AEH   CODE     ---       ClearUart4Buf
      00FF48DAH   CODE     ---       ClosePump
      00FF479CH   CODE     ---       CloseValve
*SFR* 000000C1H.4 DATA     BIT       CLR_WDT
*SFR* 000000E6H   DATA     BYTE      CMPCR1
*SFR* 000000E7H   DATA     BYTE      CMPCR2
      00FF2A12H   CODE     ---       CRC16Calc
      00000410H   EDATA    BYTE      DataIndex
      00FF425BH   CODE     ---       DebugInt
      00FF48CEH   CODE     ---       DebugMsg
      00FF3F3DH   CODE     ---       Delay
*DEL*:00000000H   CODE     ---       delay_ms
      000001C1H   EDATA    WORD      DelayCount
      000001D0H   EDATA    BYTE      Delayflag
      0001027BH   XDATA    ---       DevInfo
      00010108H   XDATA    ---       DevReadAck
      00FF2E3AH   CODE     ---       DevRun
      0001020DH   XDATA    ---       DevWriteAck
      00FF4844H   CODE     ---       DisableEEPROM
      00FF2D92H   CODE     ---       DumpCmd
*SFR* 000000A8H.7 DATA     BIT       EA
*SFR* 000000BAH.7 DATA     BIT       EAXFR
      00FF34DDH   CODE     ---       EEPROM_read
      00FF43DAH   CODE     ---       EEPROM_SectorErase
      00FF47E6H   CODE     ---       EEPROM_Trig
      00FF21C0H   CODE     ---       EEPROM_write
      00FF409CH   CODE     ---       EnterPage
      00FF4816H   CODE     ---       Error
*SFR* 000000A8H.4 DATA     BIT       ES
*SFR* 000000AFH.0 DATA     BIT       ES2
*SFR* 000000AFH.3 DATA     BIT       ES3
*SFR* 000000AFH.4 DATA     BIT       ES4
*SFR* 000000A8H.1 DATA     BIT       ET0
*SFR* 000000A8H.3 DATA     BIT       ET1
*SFR* 000000AFH.2 DATA     BIT       ET2
*SFR* 000000D0H.5 DATA     BIT       F0
*DEL*:00000000H   CODE     ---       FloatToBytes
      00FF393DH   CODE     ---       FlowMeterAck
      00FF42D0H   CODE     ---       FlowTask
      000001D4H   EDATA    BYTE      g_Key_Confrom
      000001FEH   EDATA    BYTE      g_Key_Input
L251 LINKER/LOCATER V4.66.93.0                                                        05/30/2024  09:54:01  PAGE 19


      000001FDH   EDATA    BYTE      g_Key_Power
      000001EFH   EDATA    ---       g_Output
      000001C3H   EDATA    ---       g_OutStatus
      00FF40E1H   CODE     ---       Get_ADC12bitResult
      00FF2F74H   CODE     ---       Get_Temperature
      00FF3549H   CODE     ---       GetAlarm
      00FF1601H   CODE     ---       GetFlow
*DEL*:00000000H   CODE     ---       GetInput
      00FF4689H   CODE     ---       GetInputTime
      00FF4434H   CODE     ---       GetLcdTime
      00FF46EFH   CODE     ---       GetRetCode
      00FF1E58H   CODE     ---       GetValve
      000001D5H   EDATA    WORD      gRunTime
      00FF45D2H   CODE     ---       HideModule
      00000299H   EDATA    ---       HisAlarm
      00FF3730H   CODE     ---       HndInput
      00FF482DH   CODE     ---       HndLcdData
      00FF3EAEH   CODE     ---       HndLcdFrame
      00FF36D5H   CODE     ---       HndModBusRecv
      0000040AH   EDATA    WORD      HostBufIndex
      00FF1D24H   CODE     ---       HostSendCmd
      0001048FH   XDATA    ---       HostSendFrame
*SFR* 000000F6H   DATA     BYTE      IAP_ADDRE
*SFR* 000000C3H   DATA     BYTE      IAP_ADDRH
*SFR* 000000C4H   DATA     BYTE      IAP_ADDRL
*SFR* 000000C5H   DATA     BYTE      IAP_CMD
*SFR* 000000C7H   DATA     BYTE      IAP_CONTR
*SFR* 000000C2H   DATA     BYTE      IAP_DATA
*SFR* 000000F5H   DATA     BYTE      IAP_TPS
*SFR* 000000C6H   DATA     BYTE      IAP_TRIG
*SFR* 000000A8H   DATA     BYTE      IE
*SFR* 000000AFH   DATA     BYTE      IE2
      00FF3216H   CODE     ---       InitLcd
      00000204H   EDATA    BYTE      Input_Status
*SFR* 0000008FH   DATA     BYTE      INTCLKO
      00FF3992H   CODE     ---       IoCtlTask
      00FF4296H   CODE     ---       IoInit
*SFR* 000000B8H   DATA     BYTE      IP
*SFR* 000000B5H   DATA     BYTE      IP2
*SFR* 000000B6H   DATA     BYTE      IP2H
*SFR* 000000DFH   DATA     BYTE      IP3
*SFR* 000000EEH   DATA     BYTE      IP3H
*SFR* 000000B7H   DATA     BYTE      IPH
*SFR* 0000009DH   DATA     BYTE      IRCBAND
      000001D8H   EDATA    BYTE      LcdBusyFlag
      00000200H   EDATA    WORD      LcdBusyTim
      00FF2B83H   CODE     ---       LcdCmd
      0000040FH   EDATA    BYTE      LcdFrameloc
      00FF000EH   CODE     ---       LedInit
*SFR* 000000F9H   DATA     BYTE      LINICR
      00FF0096H   CODE     ---       main
      0000040CH   EDATA    ---       MbId
      00FF43ABH   CODE     ---       memcmp?_
      00FF461DH   CODE     ---       memcpy?_
      00FF4782H   CODE     ---       memset?_
      00010245H   XDATA    ---       ModBusInfo
      00010215H   XDATA    ---       ModBusParam
      00FF41E1H   CODE     ---       ModBusSaveParam
      00010231H   XDATA    ---       ModBusStatus
      00FF3089H   CODE     ---       ModeHint
      00FF379AH   CODE     ---       ModeText
      000002A9H   EDATA    BYTE      NeedGetRet
      00FF0003H   CODE     ---       OpenPump
      00FF1919H   CODE     ---       OutCtl
      00FF3674H   CODE     ---       OutFlash
L251 LINKER/LOCATER V4.66.93.0                                                        05/30/2024  09:54:01  PAGE 20


*SFR* 00000080H   DATA     BYTE      P0
*SFR* 00000094H   DATA     BYTE      P0M0
*SFR* 00000093H   DATA     BYTE      P0M1
*SFR* 00000090H   DATA     BYTE      P1
*SFR* 00000092H   DATA     BYTE      P1M0
*SFR* 00000091H   DATA     BYTE      P1M1
*SFR* 000000A0H   DATA     BYTE      P2
*SFR* 00000096H   DATA     BYTE      P2M0
*SFR* 00000095H   DATA     BYTE      P2M1
*SFR* 000000B0H   DATA     BYTE      P3
*SFR* 000000B2H   DATA     BYTE      P3M0
*SFR* 000000B1H   DATA     BYTE      P3M1
*SFR* 000000C0H   DATA     BYTE      P4
*SFR* 000000B4H   DATA     BYTE      P4M0
*SFR* 000000B3H   DATA     BYTE      P4M1
*SFR* 000000C8H   DATA     BYTE      P5
*SFR* 000000CAH   DATA     BYTE      P5M0
*SFR* 000000C9H   DATA     BYTE      P5M1
*SFR* 000000E8H   DATA     BYTE      P6
*SFR* 000000CCH   DATA     BYTE      P6M0
*SFR* 000000CBH   DATA     BYTE      P6M1
*SFR* 000000F8H   DATA     BYTE      P7
*SFR* 000000E2H   DATA     BYTE      P7M0
*SFR* 000000E1H   DATA     BYTE      P7M1
*SFR* 000000A2H   DATA     BYTE      P_SW1
*SFR* 000000BAH   DATA     BYTE      P_SW2
*SFR* 000000BBH   DATA     BYTE      P_SW3
*DEL*:00000000H   CODE     ---       PackageDWordValue
*DEL*:00000000H   CODE     ---       PackageFloatValue
      00FF3382H   CODE     ---       PackageReg
*DEL*:00000000H   CODE     ---       PackageWordValue
      00000203H   EDATA    BYTE      PageSwitch
      00FF3D82H   CODE     ---       ParamCheck
      00FF287DH   CODE     ---       ParamDef
*SFR* 00000087H   DATA     BYTE      PCON
      00FF421EH   CODE     ---       PopReg
      00FF38E8H   CODE     ---       PopWord
*DEL*:00000000H   CODE     ---       PowerOff
*SFR* 000000B8H.4 DATA     BIT       PS
*SFR* 000000B5H.0 DATA     BIT       PS2
*SFR* 000000B6H.0 DATA     BIT       PS2H
*SFR* 000000DFH.0 DATA     BIT       PS3
*SFR* 000000EEH.0 DATA     BIT       PS3H
*SFR* 000000DFH.1 DATA     BIT       PS4
*SFR* 000000EEH.1 DATA     BIT       PS4H
*SFR* 000000B7H.4 DATA     BIT       PSH
*SFR* 000000D0H   DATA     BYTE      PSW
*SFR* 000000B8H.1 DATA     BIT       PT0
*SFR* 000000B7H.1 DATA     BIT       PT0H
*DEL*:00000000H   CODE     ---       putchar
      00FF27A9H   CODE     ---       ReadAck
      00010597H   XDATA    ---       ReadAckFrame
      00FF26CFH   CODE     ---       ReadFlow
      00FF4057H   CODE     ---       ReadParam
      00FF0A9EH   CODE     ---       ReadReg
      00010AE5H   XDATA    ---       RealFlow
      0000040EH   EDATA    BYTE      RecLength1
      000108F4H   XDATA    ---       RecvBuf1
      00010000H   XDATA    ---       RecvFrame
      00FF48E5H   CODE     ---       RegSw
      00000202H   EDATA    BYTE      RemAckOut
      000001D9H   EDATA    WORD      RemAckTimout
      00010A9BH   XDATA    ---       Remchenable
      000109BCH   XDATA    ---       Remchflag
      00010477H   XDATA    ---       RemChStatus
L251 LINKER/LOCATER V4.66.93.0                                                        05/30/2024  09:54:01  PAGE 21


      000001DBH   EDATA    WORD      Remchtim
      00FF48EEH   CODE     ---       RemCtlTask
      000001D3H   EDATA    BYTE      RemPage
      00FF179CH   CODE     ---       RemPageCtl
      00010A95H   XDATA    ---       RemRegAddr
      00010AA3H   XDATA    ---       RemRunStatus
      000001D7H   EDATA    BYTE      RemStart
      000001EAH   EDATA    BYTE      RemStop
*SFR* 00000098H.4 DATA     BIT       REN
      00FF2ACCH   CODE     ---       ReturnStart
*SFR* 00000098H.0 DATA     BIT       RI
*SFR* 000000FFH   DATA     BYTE      RSTCFG
      00FF0026H   CODE     ---       RunCheck
      000103BFH   XDATA    ---       RunInfo
      00FF3EF6H   CODE     ---       RunLed
      00010A28H   XDATA    ---       RunStatus
      00000021H   EDATA    ---       RX1_Buffer
      000001B7H   EDATA    BYTE      RX1_Cnt
      000001B1H   EDATA    WORD      Rx1_Timer
      0001069CH   XDATA    ---       RX2_Buffer
      000001BAH   EDATA    BYTE      RX2_Cnt
      000001B3H   EDATA    WORD      Rx2_Timer
      00010764H   XDATA    ---       RX3_Buffer
      000001BBH   EDATA    BYTE      RX3_Cnt
      000001B5H   EDATA    WORD      Rx3_Timer
      000000E9H   EDATA    ---       RX4_Buffer
      000001BDH   EDATA    BYTE      RX4_Cnt
      000001B8H   EDATA    WORD      Rx4_Timer
*SFR* 0000009BH   DATA     BYTE      S2BUF
*SFR* 0000009AH   DATA     BYTE      S2CON
*SFR* 0000009AH.4 DATA     BIT       S2REN
*SFR* 0000009AH.0 DATA     BIT       S2RI
*SFR* 0000009AH.1 DATA     BIT       S2TI
*SFR* 000000ADH   DATA     BYTE      S3BUF
*SFR* 000000ACH   DATA     BYTE      S3CON
*SFR* 000000ACH.4 DATA     BIT       S3REN
*SFR* 000000ACH.0 DATA     BIT       S3RI
*SFR* 000000ACH.1 DATA     BIT       S3TI
*SFR* 000000FEH   DATA     BYTE      S4BUF
*SFR* 000000FDH   DATA     BYTE      S4CON
*SFR* 000000FDH.4 DATA     BIT       S4REN
*SFR* 000000FDH.0 DATA     BIT       S4RI
*SFR* 000000FDH.1 DATA     BIT       S4TI
      00FF4461H   CODE     ---       SampCtl
      00FF48EAH   CODE     ---       SaveParam
*SFR* 00000099H   DATA     BYTE      SBUF
*SFR* 00000098H   DATA     BYTE      SCON
      0001082CH   XDATA    ---       SendBuf1
      00FF44B9H   CODE     ---       SendBuffer
      00FF24EFH   CODE     ---       SendChannelParam
      000001D2H   EDATA    BYTE      SendFlowFlag
      000001EBH   EDATA    WORD      SendFlowTim
      00FF1F89H   CODE     ---       SendParam
      00FF45ABH   CODE     ---       SendReadFlow
      00FF4666H   CODE     ---       SendReadFlowCmd
      00FF4165H   CODE     ---       SendTcpFrame
*DEL*:00000000H   CODE     ---       SensorInit
      00FF3DCEH   CODE     ---       SetBkLight
      00FF3ACDH   CODE     ---       SetChannel1Mode
      00FF3B1AH   CODE     ---       SetChannel2Mode
      00FF3B67H   CODE     ---       SetChannel3Mode
      00FF3BB4H   CODE     ---       SetChannel4Mode
      00FF3C01H   CODE     ---       SetChannel5Mode
      00FF3C4EH   CODE     ---       SetChannel6Mode
      00FF3C9BH   CODE     ---       SetChannel7Mode
L251 LINKER/LOCATER V4.66.93.0                                                        05/30/2024  09:54:01  PAGE 22


      00FF3CE8H   CODE     ---       SetChannel8Mode
*DEL*:00000000H   CODE     ---       SetChCount
      00FF294FH   CODE     ---       SetCurTime
      00FF2C38H   CODE     ---       SetLcdTime
      00FF46CEH   CODE     ---       SetRegValue
      00FF330AH   CODE     ---       SetRunTime
      00FF3D35H   CODE     ---       SetSampMode
      00FF448DH   CODE     ---       SetStartBtn
      00FF470FH   CODE     ---       SetTextColor
      00FF25F1H   CODE     ---       ShowDevInfo
      00FF472EH   CODE     ---       ShowEmStop
      00FF46ACH   CODE     ---       ShowFlow
      00FF4642H   CODE     ---       ShowModule
      0001024BH   XDATA    ---       ShowParam
      00FF4768H   CODE     ---       ShowRemCh
      00FF23E5H   CODE     ---       ShowStatus
      00FF47B5H   CODE     ---       ShowTemp
      000001DDH   EDATA    FLOAT     SimFlow
*SFR* 000000CEH   DATA     BYTE      SPCTL
      00FF03D7H   CODE     NEAR LAB  sprintf
*SFR* 000000CDH   DATA     BYTE      SPSTAT
      00FF455DH   CODE     ---       StartButton
      00FF3292H   CODE     ---       StartSamp
      00FF2EDDH   CODE     ---       StatusColor
      00FF378AH   CODE     ---       StatusPoint
      00FF2CE6H   CODE     ---       StopSamp
      00FF48C0H   CODE     ---       strlen?_
      00010AA5H   XDATA    ---       StrTmp
      00FF008EH   CODE     ---       SwDWord
*DEL*:00000000H   CODE     ---       SwEndian
*DEL*:00000000H   CODE     ---       SwEndianW
      00FF48E0H   CODE     ---       SwWord
      00FF3198H   CODE     ---       SyncModBusDev
      00FF4535H   CODE     ---       SysInit
      000109C4H   XDATA    ---       SysParam
*SFR* 000000D6H   DATA     BYTE      T2H
*SFR* 000000D7H   DATA     BYTE      T2L
*SFR* 0000008EH.4 DATA     BIT       T2R
*SFR* 0000008EH.2 DATA     BIT       T2x12
*SFR* 000000D4H   DATA     BYTE      T3H
*SFR* 000000D5H   DATA     BYTE      T3L
*SFR* 000000DDH.3 DATA     BIT       T3R
*SFR* 000000D2H   DATA     BYTE      T4H
*SFR* 000000D3H   DATA     BYTE      T4L
*SFR* 000000DDH.7 DATA     BIT       T4R
*SFR* 000000DDH   DATA     BYTE      T4T3M
      00FF3A33H   CODE     ---       Task1s
*SFR* 00000088H   DATA     BYTE      TCON
      00FF1BE2H   CODE     ---       temp_table
      0001033FH   XDATA    ---       TempBuf
      00000406H   EDATA    WORD      TEMPER
      00000408H   EDATA    WORD      TEMPER_Val
*SFR* 0000008CH   DATA     BYTE      TH0
*SFR* 0000008DH   DATA     BYTE      TH1
*SFR* 00000098H.1 DATA     BIT       TI
      000001EDH   EDATA    WORD      Timer0Cnt
      00FF47CEH   CODE     ---       Timer0Init
      00FF41A4H   CODE     ---       Timer0Int
      00FF20A9H   CODE     ---       TimerTask
      00FF1433H   CODE     ---       TimingMode
*SFR* 0000008AH   DATA     BYTE      TL0
*SFR* 0000008BH   DATA     BYTE      TL1
*SFR* 00000089H   DATA     BYTE      TMOD
*SFR* 00000088H.4 DATA     BIT       TR0
*SFR* 00000088H.6 DATA     BIT       TR1
L251 LINKER/LOCATER V4.66.93.0                                                        05/30/2024  09:54:01  PAGE 23


      000001BCH   EDATA    BYTE      TX1_Cnt
      000001BEH   EDATA    BYTE      TX2_Cnt
      000001BFH   EDATA    BYTE      TX3_Cnt
      000001C0H   EDATA    BYTE      TX4_Cnt
      00FF37DAH   CODE     ---       TxtColor
      00FF39E4H   CODE     ---       UART1_config
      00FF3F84H   CODE     ---       UART1_int
      00FF4886H   CODE     ---       Uart1Hnd
*DEL*:00000000H   CODE     ---       Uart1Send
      00FF3E65H   CODE     ---       UART2_config
      00FF37E4H   CODE     ---       UART2_int
      00FF3A80H   CODE     ---       Uart2Hnd
      00FF4125H   CODE     ---       Uart2Send
      00FF4342H   CODE     ---       UART3_config
      00FF383BH   CODE     ---       UART3_int
      00FF45F8H   CODE     ---       Uart3Hnd
      00FF3FCBH   CODE     ---       Uart3Send
      00FF4377H   CODE     ---       UART4_config
      00FF3E1AH   CODE     ---       UART4_int
      00FF4309H   CODE     ---       Uart4Hnd
      00FF4011H   CODE     ---       Uart4Send
      00FF3613H   CODE     ---       UpdataUI
*SFR* 000000F4H   DATA     BYTE      USBCON
      00FF35AFH   CODE     ---       ValidLcdFrame
      00FF4584H   CODE     ---       ValidRtuFrame
*DEL*:00000000H   CODE     ---       ValidTcpFrame
      000001D1H   EDATA    BYTE      ValveIOFlag
      00FF44E4H   CODE     ---       VerifyPassWord
      00FF000AH   CODE     BYTE      VERSION
      00FF1254H   CODE     ---       VolumeMode
*SFR* 000000C1H   DATA     BYTE      WDT_CONTR
      00FF3112H   CODE     ---       WriteAck
      00010487H   XDATA    ---       WriteAckFrame
      00FF0046H   CODE     ---       WriteParam
      00FF0021H   CODE     ---       WriteReg
      00FF33F8H   CODE     ---       WriteRegValue
*SFR* 000000E9H   DATA     BYTE      WTST



SYMBOL TABLE OF MODULE:  .\obj\PileCore (ISR)

      VALUE       REP       CLASS    TYPE      SYMBOL NAME
      ====================================================
      ---         MODULE    ---      ---       ISR

      ---         MODULE    ---      ---       main
      00FF3613H   PUBLIC    CODE     ---       UpdataUI
      00FF0046H   PUBLIC    CODE     ---       WriteParam
      00FF1254H   PUBLIC    CODE     ---       VolumeMode
      00FF287DH   PUBLIC    CODE     ---       ParamDef
      00FF48EAH   PUBLIC    CODE     ---       SaveParam
      00FF4816H   PUBLIC    CODE     ---       Error
      00FF3198H   PUBLIC    CODE     ---       SyncModBusDev
      00FF3549H   PUBLIC    CODE     ---       GetAlarm
      00FF450DH   PUBLIC    CODE     ---       CheckModeStop
      00FF48CEH   PUBLIC    CODE     ---       DebugMsg
      00FF425BH   PUBLIC    CODE     ---       DebugInt
      00FF0026H   PUBLIC    CODE     ---       RunCheck
      00FF20A9H   PUBLIC    CODE     ---       TimerTask
      00FF48DAH   PUBLIC    CODE     ---       ClosePump
      00FF1E58H   PUBLIC    CODE     ---       GetValve
      00FF3292H   PUBLIC    CODE     ---       StartSamp
      00FF0096H   PUBLIC    CODE     ---       main
      00FF3216H   PUBLIC    CODE     ---       InitLcd
L251 LINKER/LOCATER V4.66.93.0                                                        05/30/2024  09:54:01  PAGE 24


      00FF3674H   PUBLIC    CODE     ---       OutFlash
      00FF000EH   PUBLIC    CODE     ---       LedInit
      00FF2D92H   PUBLIC    CODE     ---       DumpCmd
      00FF3730H   PUBLIC    CODE     ---       HndInput
      00FF42D0H   PUBLIC    CODE     ---       FlowTask
      00FF0003H   PUBLIC    CODE     ---       OpenPump
      00FF3A33H   PUBLIC    CODE     ---       Task1s
      00FF1601H   PUBLIC    CODE     ---       GetFlow
      00FF4666H   PUBLIC    CODE     ---       SendReadFlowCmd
      00FF2CE6H   PUBLIC    CODE     ---       StopSamp
      00FF1A8BH   PUBLIC    CODE     ---       Channel_ManMode
      00FF179CH   PUBLIC    CODE     ---       RemPageCtl
      00FF3000H   PUBLIC    CODE     ---       AbnorAlaerm
      00FF47CEH   PUBLIC    CODE     ---       Timer0Init
      00FF3EF6H   PUBLIC    CODE     ---       RunLed
      00FF4296H   PUBLIC    CODE     ---       IoInit
      00FF0F3BH   PUBLIC    CODE     ---       CheckAlarm
      00FF3D82H   PUBLIC    CODE     ---       ParamCheck
      00FF4535H   PUBLIC    CODE     ---       SysInit
      00FF2E3AH   PUBLIC    CODE     ---       DevRun
      00FF1919H   PUBLIC    CODE     ---       OutCtl
      00FF48EEH   PUBLIC    CODE     ---       RemCtlTask
      00FF41A4H   PUBLIC    CODE     ---       Timer0Int
      00FF22D5H   PUBLIC    CODE     ---       CheckValve
      00FF3F3DH   PUBLIC    CODE     ---       Delay
      00FF4057H   PUBLIC    CODE     ---       ReadParam
      00FF1433H   PUBLIC    CODE     ---       TimingMode
      00FF3992H   PUBLIC    CODE     ---       IoCtlTask
      00FF479CH   PUBLIC    CODE     ---       CloseValve
      000001C1H   PUBLIC    EDATA    WORD      DelayCount
      000001C3H   PUBLIC    EDATA    ---       g_OutStatus
      000001D0H   PUBLIC    EDATA    BYTE      Delayflag
      000001D1H   PUBLIC    EDATA    BYTE      ValveIOFlag
      000001D2H   PUBLIC    EDATA    BYTE      SendFlowFlag
      000001D3H   PUBLIC    EDATA    BYTE      RemPage
      000001D4H   PUBLIC    EDATA    BYTE      g_Key_Confrom
      000001D5H   PUBLIC    EDATA    WORD      gRunTime
      000001D7H   PUBLIC    EDATA    BYTE      RemStart
      000001D8H   PUBLIC    EDATA    BYTE      LcdBusyFlag
      000001D9H   PUBLIC    EDATA    WORD      RemAckTimout
      000001DBH   PUBLIC    EDATA    WORD      Remchtim
      000001DDH   PUBLIC    EDATA    FLOAT     SimFlow
      000001E1H   PUBLIC    EDATA    ---       ChannelError
      000001EAH   PUBLIC    EDATA    BYTE      RemStop
      000001EBH   PUBLIC    EDATA    WORD      SendFlowTim
      000001EDH   PUBLIC    EDATA    WORD      Timer0Cnt
      000001EFH   PUBLIC    EDATA    ---       g_Output
      000001FCH   PUBLIC    EDATA    BYTE      ChNum
      000001FDH   PUBLIC    EDATA    BYTE      g_Key_Power
      000001FEH   PUBLIC    EDATA    BYTE      g_Key_Input
      000001FFH   PUBLIC    EDATA    BYTE      ChannelStop
      00000200H   PUBLIC    EDATA    WORD      LcdBusyTim
      00000202H   PUBLIC    EDATA    BYTE      RemAckOut
      00000203H   PUBLIC    EDATA    BYTE      PageSwitch
      00000204H   PUBLIC    EDATA    BYTE      Input_Status
      000109BCH   PUBLIC    XDATA    ---       Remchflag
      000109C4H   PUBLIC    XDATA    ---       SysParam
      00010A28H   PUBLIC    XDATA    ---       RunStatus
      00010A95H   PUBLIC    XDATA    ---       RemRegAddr
      00010A9BH   PUBLIC    XDATA    ---       Remchenable
      00010AA3H   PUBLIC    XDATA    ---       RemRunStatus
      00010AA5H   PUBLIC    XDATA    ---       StrTmp
      00FF000AH   PUBLIC    CODE     BYTE      VERSION
      00000094H   SFRSYM    DATA     BYTE      P0M0
      000000D0H   SFRSYM    DATA     BYTE      PSW
L251 LINKER/LOCATER V4.66.93.0                                                        05/30/2024  09:54:01  PAGE 25


      000000BAH.7 SFRSYM    DATA     BIT       EAXFR
      0000009DH   SFRSYM    DATA     BYTE      IRCBAND
      00000097H   SFRSYM    DATA     BYTE      AUXR2
      000000EFH   SFRSYM    DATA     BYTE      AUXINTIF
      000000FDH   SFRSYM    DATA     BYTE      S4CON
      000000ACH   SFRSYM    DATA     BYTE      S3CON
      0000009AH   SFRSYM    DATA     BYTE      S2CON
      000000B7H   SFRSYM    DATA     BYTE      IPH
      000000CDH   SFRSYM    DATA     BYTE      SPSTAT
      000000DDH   SFRSYM    DATA     BYTE      T4T3M
      000000C1H   SFRSYM    DATA     BYTE      WDT_CONTR
      00000088H.4 SFRSYM    DATA     BIT       TR0
      000000B8H.1 SFRSYM    DATA     BIT       PT0
      000000E9H   SFRSYM    DATA     BYTE      WTST
      0000008AH   SFRSYM    DATA     BYTE      TL0
      0000008CH   SFRSYM    DATA     BYTE      TH0
      000000DFH   SFRSYM    DATA     BYTE      IP3
      000000F4H   SFRSYM    DATA     BYTE      USBCON
      000000B5H   SFRSYM    DATA     BYTE      IP2
      000000FFH   SFRSYM    DATA     BYTE      RSTCFG
      000000A8H.1 SFRSYM    DATA     BIT       ET0
      000000C7H   SFRSYM    DATA     BYTE      IAP_CONTR
      000000F9H   SFRSYM    DATA     BYTE      LINICR
      0000008EH   SFRSYM    DATA     BYTE      AUXR
      000000AFH   SFRSYM    DATA     BYTE      IE2
      00000088H   SFRSYM    DATA     BYTE      TCON
      00000089H   SFRSYM    DATA     BYTE      TMOD
      00000098H   SFRSYM    DATA     BYTE      SCON
      000000C1H.4 SFRSYM    DATA     BIT       CLR_WDT
      000000F1H   SFRSYM    DATA     BYTE      CANICR
      00000087H   SFRSYM    DATA     BYTE      PCON
      000000BCH   SFRSYM    DATA     BYTE      ADC_CONTR
      000000E7H   SFRSYM    DATA     BYTE      CMPCR2
      000000E6H   SFRSYM    DATA     BYTE      CMPCR1
      000000B7H.1 SFRSYM    DATA     BIT       PT0H
      000000DEH   SFRSYM    DATA     BYTE      ADCCFG
      000000B8H   SFRSYM    DATA     BYTE      IP
      0000008FH   SFRSYM    DATA     BYTE      INTCLKO
      000000EEH   SFRSYM    DATA     BYTE      IP3H
      000000B6H   SFRSYM    DATA     BYTE      IP2H
      000000A8H   SFRSYM    DATA     BYTE      IE
      000000BBH   SFRSYM    DATA     BYTE      P_SW3
      000000BAH   SFRSYM    DATA     BYTE      P_SW2
      000000A2H   SFRSYM    DATA     BYTE      P_SW1
      000000CEH   SFRSYM    DATA     BYTE      SPCTL
      000000F8H   SFRSYM    DATA     BYTE      P7
      000000A8H.7 SFRSYM    DATA     BIT       EA
      000000E1H   SFRSYM    DATA     BYTE      P7M1
      000000E8H   SFRSYM    DATA     BYTE      P6
      000000C8H   SFRSYM    DATA     BYTE      P5
      000000CBH   SFRSYM    DATA     BYTE      P6M1
      000000E2H   SFRSYM    DATA     BYTE      P7M0
      000000C0H   SFRSYM    DATA     BYTE      P4
      000000C9H   SFRSYM    DATA     BYTE      P5M1
      000000CCH   SFRSYM    DATA     BYTE      P6M0
      000000B0H   SFRSYM    DATA     BYTE      P3
      000000B3H   SFRSYM    DATA     BYTE      P4M1
      000000CAH   SFRSYM    DATA     BYTE      P5M0
      000000A0H   SFRSYM    DATA     BYTE      P2
      000000B1H   SFRSYM    DATA     BYTE      P3M1
      000000B4H   SFRSYM    DATA     BYTE      P4M0
      00000090H   SFRSYM    DATA     BYTE      P1
      00000095H   SFRSYM    DATA     BYTE      P2M1
      000000B2H   SFRSYM    DATA     BYTE      P3M0
      00000080H   SFRSYM    DATA     BYTE      P0
L251 LINKER/LOCATER V4.66.93.0                                                        05/30/2024  09:54:01  PAGE 26


      00000091H   SFRSYM    DATA     BYTE      P1M1
      00000096H   SFRSYM    DATA     BYTE      P2M0
      00000092H   SFRSYM    DATA     BYTE      P1M0
      00000093H   SFRSYM    DATA     BYTE      P0M1

      ---         MODULE    ---      ---       EepRom
      00FF4844H   PUBLIC    CODE     ---       DisableEEPROM
      00FF43DAH   PUBLIC    CODE     ---       EEPROM_SectorErase
      00FF47E6H   PUBLIC    CODE     ---       EEPROM_Trig
      00FF34DDH   PUBLIC    CODE     ---       EEPROM_read
      00FF21C0H   PUBLIC    CODE     ---       EEPROM_write
      0000030DH   PUBLIC    EDATA    BYTE      ?EEPROM_read?BYTE
      00000287H   PUBLIC    EDATA    BYTE      ?EEPROM_write?BYTE
      000000D0H   SFRSYM    DATA     BYTE      PSW
      0000009DH   SFRSYM    DATA     BYTE      IRCBAND
      000000D0H.5 SFRSYM    DATA     BIT       F0
      00000097H   SFRSYM    DATA     BYTE      AUXR2
      000000C6H   SFRSYM    DATA     BYTE      IAP_TRIG
      000000EFH   SFRSYM    DATA     BYTE      AUXINTIF
      000000FDH   SFRSYM    DATA     BYTE      S4CON
      000000ACH   SFRSYM    DATA     BYTE      S3CON
      0000009AH   SFRSYM    DATA     BYTE      S2CON
      000000B7H   SFRSYM    DATA     BYTE      IPH
      000000CDH   SFRSYM    DATA     BYTE      SPSTAT
      000000DDH   SFRSYM    DATA     BYTE      T4T3M
      000000C1H   SFRSYM    DATA     BYTE      WDT_CONTR
      000000C2H   SFRSYM    DATA     BYTE      IAP_DATA
      000000DFH   SFRSYM    DATA     BYTE      IP3
      000000F4H   SFRSYM    DATA     BYTE      USBCON
      000000B5H   SFRSYM    DATA     BYTE      IP2
      000000FFH   SFRSYM    DATA     BYTE      RSTCFG
      000000C7H   SFRSYM    DATA     BYTE      IAP_CONTR
      000000F9H   SFRSYM    DATA     BYTE      LINICR
      0000008EH   SFRSYM    DATA     BYTE      AUXR
      000000AFH   SFRSYM    DATA     BYTE      IE2
      00000088H   SFRSYM    DATA     BYTE      TCON
      00000089H   SFRSYM    DATA     BYTE      TMOD
      00000098H   SFRSYM    DATA     BYTE      SCON
      000000F5H   SFRSYM    DATA     BYTE      IAP_TPS
      000000F1H   SFRSYM    DATA     BYTE      CANICR
      00000087H   SFRSYM    DATA     BYTE      PCON
      000000BCH   SFRSYM    DATA     BYTE      ADC_CONTR
      000000E7H   SFRSYM    DATA     BYTE      CMPCR2
      000000E6H   SFRSYM    DATA     BYTE      CMPCR1
      000000C4H   SFRSYM    DATA     BYTE      IAP_ADDRL
      000000C3H   SFRSYM    DATA     BYTE      IAP_ADDRH
      000000F6H   SFRSYM    DATA     BYTE      IAP_ADDRE
      000000DEH   SFRSYM    DATA     BYTE      ADCCFG
      000000B8H   SFRSYM    DATA     BYTE      IP
      0000008FH   SFRSYM    DATA     BYTE      INTCLKO
      000000EEH   SFRSYM    DATA     BYTE      IP3H
      000000B6H   SFRSYM    DATA     BYTE      IP2H
      000000C5H   SFRSYM    DATA     BYTE      IAP_CMD
      000000A8H   SFRSYM    DATA     BYTE      IE
      000000BBH   SFRSYM    DATA     BYTE      P_SW3
      000000BAH   SFRSYM    DATA     BYTE      P_SW2
      000000A2H   SFRSYM    DATA     BYTE      P_SW1
      000000CEH   SFRSYM    DATA     BYTE      SPCTL
      000000F8H   SFRSYM    DATA     BYTE      P7
      000000A8H.7 SFRSYM    DATA     BIT       EA
      000000E8H   SFRSYM    DATA     BYTE      P6
      000000C8H   SFRSYM    DATA     BYTE      P5
      000000C0H   SFRSYM    DATA     BYTE      P4
      000000B0H   SFRSYM    DATA     BYTE      P3
      000000A0H   SFRSYM    DATA     BYTE      P2
L251 LINKER/LOCATER V4.66.93.0                                                        05/30/2024  09:54:01  PAGE 27


      00000090H   SFRSYM    DATA     BYTE      P1
      00000080H   SFRSYM    DATA     BYTE      P0

      ---         MODULE    ---      ---       uart
      00FF3F84H   PUBLIC    CODE     ---       UART1_int
      00FF37E4H   PUBLIC    CODE     ---       UART2_int
      00FF383BH   PUBLIC    CODE     ---       UART3_int
      00FF3E1AH   PUBLIC    CODE     ---       UART4_int
      00FF39E4H   PUBLIC    CODE     ---       UART1_config
      00FF3E65H   PUBLIC    CODE     ---       UART2_config
      00FF4342H   PUBLIC    CODE     ---       UART3_config
      00FF4377H   PUBLIC    CODE     ---       UART4_config
      00FF489CH   PUBLIC    CODE     ---       ClearUart1Buf
      00FF485AH   PUBLIC    CODE     ---       ClearUart2Buf
      00FF4870H   PUBLIC    CODE     ---       ClearUart3Buf
      00FF48AEH   PUBLIC    CODE     ---       ClearUart4Buf
      00FF4125H   PUBLIC    CODE     ---       Uart2Send
      00FF3FCBH   PUBLIC    CODE     ---       Uart3Send
      00FF4011H   PUBLIC    CODE     ---       Uart4Send
      00FF4886H   PUBLIC    CODE     ---       Uart1Hnd
      00FF3A80H   PUBLIC    CODE     ---       Uart2Hnd
      00FF45F8H   PUBLIC    CODE     ---       Uart3Hnd
      00FF4309H   PUBLIC    CODE     ---       Uart4Hnd
      00000020H.0 PUBLIC    BIT      BIT       B_TX1_Busy
      00000020H.1 PUBLIC    BIT      BIT       B_TX2_Busy
      00000020H.2 PUBLIC    BIT      BIT       B_TX3_Busy
      00000020H.3 PUBLIC    BIT      BIT       B_TX4_Busy
      00000021H   PUBLIC    EDATA    ---       RX1_Buffer
      000000E9H   PUBLIC    EDATA    ---       RX4_Buffer
      000001B1H   PUBLIC    EDATA    WORD      Rx1_Timer
      000001B3H   PUBLIC    EDATA    WORD      Rx2_Timer
      000001B5H   PUBLIC    EDATA    WORD      Rx3_Timer
      000001B7H   PUBLIC    EDATA    BYTE      RX1_Cnt
      000001B8H   PUBLIC    EDATA    WORD      Rx4_Timer
      000001BAH   PUBLIC    EDATA    BYTE      RX2_Cnt
      000001BBH   PUBLIC    EDATA    BYTE      RX3_Cnt
      000001BCH   PUBLIC    EDATA    BYTE      TX1_Cnt
      000001BDH   PUBLIC    EDATA    BYTE      RX4_Cnt
      000001BEH   PUBLIC    EDATA    BYTE      TX2_Cnt
      000001BFH   PUBLIC    EDATA    BYTE      TX3_Cnt
      000001C0H   PUBLIC    EDATA    BYTE      TX4_Cnt
      0001069CH   PUBLIC    XDATA    ---       RX2_Buffer
      00010764H   PUBLIC    XDATA    ---       RX3_Buffer
      000000D0H   SFRSYM    DATA     BYTE      PSW
      0000009DH   SFRSYM    DATA     BYTE      IRCBAND
      00000097H   SFRSYM    DATA     BYTE      AUXR2
      000000FDH.4 SFRSYM    DATA     BIT       S4REN
      000000ACH.4 SFRSYM    DATA     BIT       S3REN
      0000009AH.4 SFRSYM    DATA     BIT       S2REN
      000000B7H.4 SFRSYM    DATA     BIT       PSH
      000000EFH   SFRSYM    DATA     BYTE      AUXINTIF
      000000FDH   SFRSYM    DATA     BYTE      S4CON
      000000ACH   SFRSYM    DATA     BYTE      S3CON
      0000009AH   SFRSYM    DATA     BYTE      S2CON
      00000098H.4 SFRSYM    DATA     BIT       REN
      000000FEH   SFRSYM    DATA     BYTE      S4BUF
      000000ADH   SFRSYM    DATA     BYTE      S3BUF
      0000009BH   SFRSYM    DATA     BYTE      S2BUF
      0000008EH.2 SFRSYM    DATA     BIT       T2x12
      000000B7H   SFRSYM    DATA     BYTE      IPH
      000000CDH   SFRSYM    DATA     BYTE      SPSTAT
      000000DDH   SFRSYM    DATA     BYTE      T4T3M
      000000DDH.7 SFRSYM    DATA     BIT       T4R
      000000DDH.3 SFRSYM    DATA     BIT       T3R
      0000008EH.4 SFRSYM    DATA     BIT       T2R
L251 LINKER/LOCATER V4.66.93.0                                                        05/30/2024  09:54:01  PAGE 28


      000000C1H   SFRSYM    DATA     BYTE      WDT_CONTR
      00000088H.6 SFRSYM    DATA     BIT       TR1
      000000DFH.1 SFRSYM    DATA     BIT       PS4
      000000DFH.0 SFRSYM    DATA     BIT       PS3
      000000B5H.0 SFRSYM    DATA     BIT       PS2
      000000D3H   SFRSYM    DATA     BYTE      T4L
      000000D5H   SFRSYM    DATA     BYTE      T3L
      000000D7H   SFRSYM    DATA     BYTE      T2L
      0000008BH   SFRSYM    DATA     BYTE      TL1
      000000D2H   SFRSYM    DATA     BYTE      T4H
      000000D4H   SFRSYM    DATA     BYTE      T3H
      000000D6H   SFRSYM    DATA     BYTE      T2H
      0000008DH   SFRSYM    DATA     BYTE      TH1
      000000AFH.4 SFRSYM    DATA     BIT       ES4
      000000DFH   SFRSYM    DATA     BYTE      IP3
      000000F4H   SFRSYM    DATA     BYTE      USBCON
      000000AFH.3 SFRSYM    DATA     BIT       ES3
      000000AFH.2 SFRSYM    DATA     BIT       ET2
      000000B5H   SFRSYM    DATA     BYTE      IP2
      000000FFH   SFRSYM    DATA     BYTE      RSTCFG
      000000A8H.3 SFRSYM    DATA     BIT       ET1
      000000AFH.0 SFRSYM    DATA     BIT       ES2
      000000C7H   SFRSYM    DATA     BYTE      IAP_CONTR
      000000F9H   SFRSYM    DATA     BYTE      LINICR
      0000008EH   SFRSYM    DATA     BYTE      AUXR
      000000AFH   SFRSYM    DATA     BYTE      IE2
      00000088H   SFRSYM    DATA     BYTE      TCON
      00000089H   SFRSYM    DATA     BYTE      TMOD
      00000098H   SFRSYM    DATA     BYTE      SCON
      000000F1H   SFRSYM    DATA     BYTE      CANICR
      00000087H   SFRSYM    DATA     BYTE      PCON
      00000099H   SFRSYM    DATA     BYTE      SBUF
      000000BCH   SFRSYM    DATA     BYTE      ADC_CONTR
      000000E7H   SFRSYM    DATA     BYTE      CMPCR2
      000000E6H   SFRSYM    DATA     BYTE      CMPCR1
      000000FDH.1 SFRSYM    DATA     BIT       S4TI
      000000ACH.1 SFRSYM    DATA     BIT       S3TI
      0000009AH.1 SFRSYM    DATA     BIT       S2TI
      000000B8H.4 SFRSYM    DATA     BIT       PS
      000000FDH.0 SFRSYM    DATA     BIT       S4RI
      000000ACH.0 SFRSYM    DATA     BIT       S3RI
      0000009AH.0 SFRSYM    DATA     BIT       S2RI
      000000EEH.1 SFRSYM    DATA     BIT       PS4H
      000000EEH.0 SFRSYM    DATA     BIT       PS3H
      000000B6H.0 SFRSYM    DATA     BIT       PS2H
      00000098H.1 SFRSYM    DATA     BIT       TI
      00000098H.0 SFRSYM    DATA     BIT       RI
      000000DEH   SFRSYM    DATA     BYTE      ADCCFG
      000000B8H   SFRSYM    DATA     BYTE      IP
      000000A8H.4 SFRSYM    DATA     BIT       ES
      0000008FH   SFRSYM    DATA     BYTE      INTCLKO
      000000EEH   SFRSYM    DATA     BYTE      IP3H
      000000B6H   SFRSYM    DATA     BYTE      IP2H
      000000A8H   SFRSYM    DATA     BYTE      IE
      000000BBH   SFRSYM    DATA     BYTE      P_SW3
      000000BAH   SFRSYM    DATA     BYTE      P_SW2
      000000A2H   SFRSYM    DATA     BYTE      P_SW1
      000000CEH   SFRSYM    DATA     BYTE      SPCTL
      000000F8H   SFRSYM    DATA     BYTE      P7
      000000E8H   SFRSYM    DATA     BYTE      P6
      000000C8H   SFRSYM    DATA     BYTE      P5
      000000C0H   SFRSYM    DATA     BYTE      P4
      000000B0H   SFRSYM    DATA     BYTE      P3
      000000A0H   SFRSYM    DATA     BYTE      P2
      00000090H   SFRSYM    DATA     BYTE      P1
L251 LINKER/LOCATER V4.66.93.0                                                        05/30/2024  09:54:01  PAGE 29


      00000080H   SFRSYM    DATA     BYTE      P0

      ---         MODULE    ---      ---       Lcd
      00FF4407H   PUBLIC    CODE     ---       CheckDataLen
      00FF409CH   PUBLIC    CODE     ---       EnterPage
      00FF4642H   PUBLIC    CODE     ---       ShowModule
      00FF3EAEH   PUBLIC    CODE     ---       HndLcdFrame
      00FF2B83H   PUBLIC    CODE     ---       LcdCmd
      00FF482DH   PUBLIC    CODE     ---       HndLcdData
      00FF008EH   PUBLIC    CODE     ---       SwDWord
      00FF474DH   PUBLIC    CODE     ---       ClearRevBuf
      00FF4434H   PUBLIC    CODE     ---       GetLcdTime
      00FF38E8H   PUBLIC    CODE     ---       PopWord
      00FF2C38H   PUBLIC    CODE     ---       SetLcdTime
      00FF3DCEH   PUBLIC    CODE     ---       SetBkLight
      00FF470FH   PUBLIC    CODE     ---       SetTextColor
      00FF45D2H   PUBLIC    CODE     ---       HideModule
      00FF48E0H   PUBLIC    CODE     ---       SwWord
      00FF35AFH   PUBLIC    CODE     ---       ValidLcdFrame
      0000040EH   PUBLIC    EDATA    BYTE      RecLength1
      0000040FH   PUBLIC    EDATA    BYTE      LcdFrameloc
      00000410H   PUBLIC    EDATA    BYTE      DataIndex
      0001082CH   PUBLIC    XDATA    ---       SendBuf1
      000108F4H   PUBLIC    XDATA    ---       RecvBuf1
      000000D0H   SFRSYM    DATA     BYTE      PSW
      0000009DH   SFRSYM    DATA     BYTE      IRCBAND
      00000097H   SFRSYM    DATA     BYTE      AUXR2
      000000EFH   SFRSYM    DATA     BYTE      AUXINTIF
      000000FDH   SFRSYM    DATA     BYTE      S4CON
      000000ACH   SFRSYM    DATA     BYTE      S3CON
      0000009AH   SFRSYM    DATA     BYTE      S2CON
      000000B7H   SFRSYM    DATA     BYTE      IPH
      000000CDH   SFRSYM    DATA     BYTE      SPSTAT
      000000DDH   SFRSYM    DATA     BYTE      T4T3M
      000000C1H   SFRSYM    DATA     BYTE      WDT_CONTR
      000000DFH   SFRSYM    DATA     BYTE      IP3
      000000F4H   SFRSYM    DATA     BYTE      USBCON
      000000B5H   SFRSYM    DATA     BYTE      IP2
      000000FFH   SFRSYM    DATA     BYTE      RSTCFG
      000000C7H   SFRSYM    DATA     BYTE      IAP_CONTR
      000000F9H   SFRSYM    DATA     BYTE      LINICR
      0000008EH   SFRSYM    DATA     BYTE      AUXR
      000000AFH   SFRSYM    DATA     BYTE      IE2
      00000088H   SFRSYM    DATA     BYTE      TCON
      00000089H   SFRSYM    DATA     BYTE      TMOD
      00000098H   SFRSYM    DATA     BYTE      SCON
      000000F1H   SFRSYM    DATA     BYTE      CANICR
      00000087H   SFRSYM    DATA     BYTE      PCON
      000000BCH   SFRSYM    DATA     BYTE      ADC_CONTR
      000000E7H   SFRSYM    DATA     BYTE      CMPCR2
      000000E6H   SFRSYM    DATA     BYTE      CMPCR1
      000000DEH   SFRSYM    DATA     BYTE      ADCCFG
      000000B8H   SFRSYM    DATA     BYTE      IP
      0000008FH   SFRSYM    DATA     BYTE      INTCLKO
      000000EEH   SFRSYM    DATA     BYTE      IP3H
      000000B6H   SFRSYM    DATA     BYTE      IP2H
      000000A8H   SFRSYM    DATA     BYTE      IE
      000000BBH   SFRSYM    DATA     BYTE      P_SW3
      000000BAH   SFRSYM    DATA     BYTE      P_SW2
      000000A2H   SFRSYM    DATA     BYTE      P_SW1
      000000CEH   SFRSYM    DATA     BYTE      SPCTL
      000000F8H   SFRSYM    DATA     BYTE      P7
      000000E8H   SFRSYM    DATA     BYTE      P6
      000000C8H   SFRSYM    DATA     BYTE      P5
      000000C0H   SFRSYM    DATA     BYTE      P4
L251 LINKER/LOCATER V4.66.93.0                                                        05/30/2024  09:54:01  PAGE 30


      000000B0H   SFRSYM    DATA     BYTE      P3
      000000A0H   SFRSYM    DATA     BYTE      P2
      00000090H   SFRSYM    DATA     BYTE      P1
      00000080H   SFRSYM    DATA     BYTE      P0

      ---         MODULE    ---      ---       LcdApp
      00FF472EH   PUBLIC    CODE     ---       ShowEmStop
      00FF1F89H   PUBLIC    CODE     ---       SendParam
      00FF2EDDH   PUBLIC    CODE     ---       StatusColor
      00FF455DH   PUBLIC    CODE     ---       StartButton
      00FF2ACCH   PUBLIC    CODE     ---       ReturnStart
      00FF3089H   PUBLIC    CODE     ---       ModeHint
      00FF0A9EH   PUBLIC    CODE     ---       ReadReg
      00FF3ACDH   PUBLIC    CODE     ---       SetChannel1Mode
      00FF3B1AH   PUBLIC    CODE     ---       SetChannel2Mode
      00FF3B67H   PUBLIC    CODE     ---       SetChannel3Mode
      00FF3BB4H   PUBLIC    CODE     ---       SetChannel4Mode
      00FF3C01H   PUBLIC    CODE     ---       SetChannel5Mode
      00FF3C4EH   PUBLIC    CODE     ---       SetChannel6Mode
      00FF3C9BH   PUBLIC    CODE     ---       SetChannel7Mode
      00FF3CE8H   PUBLIC    CODE     ---       SetChannel8Mode
      00FF23E5H   PUBLIC    CODE     ---       ShowStatus
      00FF0021H   PUBLIC    CODE     ---       WriteReg
      00FF44E4H   PUBLIC    CODE     ---       VerifyPassWord
      00FF4461H   PUBLIC    CODE     ---       SampCtl
      00FF47B5H   PUBLIC    CODE     ---       ShowTemp
      00FF46ACH   PUBLIC    CODE     ---       ShowFlow
      00FF24EFH   PUBLIC    CODE     ---       SendChannelParam
      00FF4689H   PUBLIC    CODE     ---       GetInputTime
      00FF3D35H   PUBLIC    CODE     ---       SetSampMode
      00FF46EFH   PUBLIC    CODE     ---       GetRetCode
      00FF25F1H   PUBLIC    CODE     ---       ShowDevInfo
      00FF448DH   PUBLIC    CODE     ---       SetStartBtn
      00FF294FH   PUBLIC    CODE     ---       SetCurTime
      00FF4768H   PUBLIC    CODE     ---       ShowRemCh
      00FF330AH   PUBLIC    CODE     ---       SetRunTime
      00FF378AH   PUBLIC    CODE     ---       StatusPoint
      00FF379AH   PUBLIC    CODE     ---       ModeText
      00FF37DAH   PUBLIC    CODE     ---       TxtColor
      00000299H   PUBLIC    EDATA    ---       HisAlarm
      000002A1H   PUBLIC    EDATA    ---       ChannelAlarm
      000002A9H   PUBLIC    EDATA    BYTE      NeedGetRet
      0001024BH   PUBLIC    XDATA    ---       ShowParam
      0001027BH   PUBLIC    XDATA    ---       DevInfo
      0001029FH   PUBLIC    XDATA    ---       ChannelParam
      0001033FH   PUBLIC    XDATA    ---       TempBuf
      000103BFH   PUBLIC    XDATA    ---       RunInfo
      000103F7H   PUBLIC    XDATA    ---       ChannelStatus
      00010477H   PUBLIC    XDATA    ---       RemChStatus
      000000D0H   SFRSYM    DATA     BYTE      PSW
      0000009DH   SFRSYM    DATA     BYTE      IRCBAND
      00000097H   SFRSYM    DATA     BYTE      AUXR2
      000000EFH   SFRSYM    DATA     BYTE      AUXINTIF
      000000FDH   SFRSYM    DATA     BYTE      S4CON
      000000ACH   SFRSYM    DATA     BYTE      S3CON
      0000009AH   SFRSYM    DATA     BYTE      S2CON
      000000B7H   SFRSYM    DATA     BYTE      IPH
      000000CDH   SFRSYM    DATA     BYTE      SPSTAT
      000000DDH   SFRSYM    DATA     BYTE      T4T3M
      000000C1H   SFRSYM    DATA     BYTE      WDT_CONTR
      000000DFH   SFRSYM    DATA     BYTE      IP3
      000000F4H   SFRSYM    DATA     BYTE      USBCON
      000000B5H   SFRSYM    DATA     BYTE      IP2
      000000FFH   SFRSYM    DATA     BYTE      RSTCFG
      000000C7H   SFRSYM    DATA     BYTE      IAP_CONTR
L251 LINKER/LOCATER V4.66.93.0                                                        05/30/2024  09:54:01  PAGE 31


      000000F9H   SFRSYM    DATA     BYTE      LINICR
      0000008EH   SFRSYM    DATA     BYTE      AUXR
      000000AFH   SFRSYM    DATA     BYTE      IE2
      00000088H   SFRSYM    DATA     BYTE      TCON
      00000089H   SFRSYM    DATA     BYTE      TMOD
      00000098H   SFRSYM    DATA     BYTE      SCON
      000000F1H   SFRSYM    DATA     BYTE      CANICR
      00000087H   SFRSYM    DATA     BYTE      PCON
      000000BCH   SFRSYM    DATA     BYTE      ADC_CONTR
      000000E7H   SFRSYM    DATA     BYTE      CMPCR2
      000000E6H   SFRSYM    DATA     BYTE      CMPCR1
      000000DEH   SFRSYM    DATA     BYTE      ADCCFG
      000000B8H   SFRSYM    DATA     BYTE      IP
      0000008FH   SFRSYM    DATA     BYTE      INTCLKO
      000000EEH   SFRSYM    DATA     BYTE      IP3H
      000000B6H   SFRSYM    DATA     BYTE      IP2H
      000000A8H   SFRSYM    DATA     BYTE      IE
      000000BBH   SFRSYM    DATA     BYTE      P_SW3
      000000BAH   SFRSYM    DATA     BYTE      P_SW2
      000000A2H   SFRSYM    DATA     BYTE      P_SW1
      000000CEH   SFRSYM    DATA     BYTE      SPCTL
      000000F8H   SFRSYM    DATA     BYTE      P7
      000000E8H   SFRSYM    DATA     BYTE      P6
      000000C8H   SFRSYM    DATA     BYTE      P5
      000000C0H   SFRSYM    DATA     BYTE      P4
      000000B0H   SFRSYM    DATA     BYTE      P3
      000000A0H   SFRSYM    DATA     BYTE      P2
      00000090H   SFRSYM    DATA     BYTE      P1
      00000080H   SFRSYM    DATA     BYTE      P0

      ---         MODULE    ---      ---       ModBus
      00FF4584H   PUBLIC    CODE     ---       ValidRtuFrame
      00FF2A12H   PUBLIC    CODE     ---       CRC16Calc
      00FF48E5H   PUBLIC    CODE     ---       RegSw
      000000D0H   SFRSYM    DATA     BYTE      PSW
      0000009DH   SFRSYM    DATA     BYTE      IRCBAND
      00000097H   SFRSYM    DATA     BYTE      AUXR2
      000000EFH   SFRSYM    DATA     BYTE      AUXINTIF
      000000FDH   SFRSYM    DATA     BYTE      S4CON
      000000ACH   SFRSYM    DATA     BYTE      S3CON
      0000009AH   SFRSYM    DATA     BYTE      S2CON
      000000B7H   SFRSYM    DATA     BYTE      IPH
      000000CDH   SFRSYM    DATA     BYTE      SPSTAT
      000000DDH   SFRSYM    DATA     BYTE      T4T3M
      000000C1H   SFRSYM    DATA     BYTE      WDT_CONTR
      000000DFH   SFRSYM    DATA     BYTE      IP3
      000000F4H   SFRSYM    DATA     BYTE      USBCON
      000000B5H   SFRSYM    DATA     BYTE      IP2
      000000FFH   SFRSYM    DATA     BYTE      RSTCFG
      000000C7H   SFRSYM    DATA     BYTE      IAP_CONTR
      000000F9H   SFRSYM    DATA     BYTE      LINICR
      0000008EH   SFRSYM    DATA     BYTE      AUXR
      000000AFH   SFRSYM    DATA     BYTE      IE2
      00000088H   SFRSYM    DATA     BYTE      TCON
      00000089H   SFRSYM    DATA     BYTE      TMOD
      00000098H   SFRSYM    DATA     BYTE      SCON
      000000F1H   SFRSYM    DATA     BYTE      CANICR
      00000087H   SFRSYM    DATA     BYTE      PCON
      000000BCH   SFRSYM    DATA     BYTE      ADC_CONTR
      000000E7H   SFRSYM    DATA     BYTE      CMPCR2
      000000E6H   SFRSYM    DATA     BYTE      CMPCR1
      000000DEH   SFRSYM    DATA     BYTE      ADCCFG
      000000B8H   SFRSYM    DATA     BYTE      IP
      0000008FH   SFRSYM    DATA     BYTE      INTCLKO
      000000EEH   SFRSYM    DATA     BYTE      IP3H
L251 LINKER/LOCATER V4.66.93.0                                                        05/30/2024  09:54:01  PAGE 32


      000000B6H   SFRSYM    DATA     BYTE      IP2H
      000000A8H   SFRSYM    DATA     BYTE      IE
      000000BBH   SFRSYM    DATA     BYTE      P_SW3
      000000BAH   SFRSYM    DATA     BYTE      P_SW2
      000000A2H   SFRSYM    DATA     BYTE      P_SW1
      000000CEH   SFRSYM    DATA     BYTE      SPCTL
      000000F8H   SFRSYM    DATA     BYTE      P7
      000000E8H   SFRSYM    DATA     BYTE      P6
      000000C8H   SFRSYM    DATA     BYTE      P5
      000000C0H   SFRSYM    DATA     BYTE      P4
      000000B0H   SFRSYM    DATA     BYTE      P3
      000000A0H   SFRSYM    DATA     BYTE      P2
      00000090H   SFRSYM    DATA     BYTE      P1
      00000080H   SFRSYM    DATA     BYTE      P0

      ---         MODULE    ---      ---       Temper
      00FF47FEH   PUBLIC    CODE     ---       Adc_Init
      00FF2F74H   PUBLIC    CODE     ---       Get_Temperature
      00FF3892H   PUBLIC    CODE     ---       ADC_Temp
      00FF40E1H   PUBLIC    CODE     ---       Get_ADC12bitResult
      00FF1BE2H   PUBLIC    CODE     ---       temp_table
      00000406H   PUBLIC    EDATA    WORD      TEMPER
      00000408H   PUBLIC    EDATA    WORD      TEMPER_Val
      000000D0H   SFRSYM    DATA     BYTE      PSW
      0000009DH   SFRSYM    DATA     BYTE      IRCBAND
      00000097H   SFRSYM    DATA     BYTE      AUXR2
      000000EFH   SFRSYM    DATA     BYTE      AUXINTIF
      000000FDH   SFRSYM    DATA     BYTE      S4CON
      000000ACH   SFRSYM    DATA     BYTE      S3CON
      0000009AH   SFRSYM    DATA     BYTE      S2CON
      000000B7H   SFRSYM    DATA     BYTE      IPH
      000000CDH   SFRSYM    DATA     BYTE      SPSTAT
      000000BEH   SFRSYM    DATA     BYTE      ADC_RESL
      000000DDH   SFRSYM    DATA     BYTE      T4T3M
      000000C1H   SFRSYM    DATA     BYTE      WDT_CONTR
      000000DFH   SFRSYM    DATA     BYTE      IP3
      000000F4H   SFRSYM    DATA     BYTE      USBCON
      000000B5H   SFRSYM    DATA     BYTE      IP2
      000000FFH   SFRSYM    DATA     BYTE      RSTCFG
      000000BCH.5 SFRSYM    DATA     BIT       ADC_FLAG
      000000C7H   SFRSYM    DATA     BYTE      IAP_CONTR
      000000F9H   SFRSYM    DATA     BYTE      LINICR
      0000008EH   SFRSYM    DATA     BYTE      AUXR
      000000AFH   SFRSYM    DATA     BYTE      IE2
      00000088H   SFRSYM    DATA     BYTE      TCON
      00000089H   SFRSYM    DATA     BYTE      TMOD
      00000098H   SFRSYM    DATA     BYTE      SCON
      000000F1H   SFRSYM    DATA     BYTE      CANICR
      00000087H   SFRSYM    DATA     BYTE      PCON
      000000BCH   SFRSYM    DATA     BYTE      ADC_CONTR
      000000E7H   SFRSYM    DATA     BYTE      CMPCR2
      000000E6H   SFRSYM    DATA     BYTE      CMPCR1
      000000DEH   SFRSYM    DATA     BYTE      ADCCFG
      000000B8H   SFRSYM    DATA     BYTE      IP
      0000008FH   SFRSYM    DATA     BYTE      INTCLKO
      000000EEH   SFRSYM    DATA     BYTE      IP3H
      000000B6H   SFRSYM    DATA     BYTE      IP2H
      000000BDH   SFRSYM    DATA     BYTE      ADC_RES
      000000A8H   SFRSYM    DATA     BYTE      IE
      000000BBH   SFRSYM    DATA     BYTE      P_SW3
      000000BAH   SFRSYM    DATA     BYTE      P_SW2
      000000A2H   SFRSYM    DATA     BYTE      P_SW1
      000000CEH   SFRSYM    DATA     BYTE      SPCTL
      000000F8H   SFRSYM    DATA     BYTE      P7
      000000E8H   SFRSYM    DATA     BYTE      P6
L251 LINKER/LOCATER V4.66.93.0                                                        05/30/2024  09:54:01  PAGE 33


      000000C8H   SFRSYM    DATA     BYTE      P5
      000000C0H   SFRSYM    DATA     BYTE      P4
      000000B0H   SFRSYM    DATA     BYTE      P3
      000000A0H   SFRSYM    DATA     BYTE      P2
      00000090H   SFRSYM    DATA     BYTE      P1
      00000080H   SFRSYM    DATA     BYTE      P0

      ---         MODULE    ---      ---       FlowMeter
      00FF26CFH   PUBLIC    CODE     ---       ReadFlow
      00FF45ABH   PUBLIC    CODE     ---       SendReadFlow
      00FF393DH   PUBLIC    CODE     ---       FlowMeterAck
      00010AE5H   PUBLIC    XDATA    ---       RealFlow
      000000D0H   SFRSYM    DATA     BYTE      PSW
      0000009DH   SFRSYM    DATA     BYTE      IRCBAND
      00000097H   SFRSYM    DATA     BYTE      AUXR2
      000000EFH   SFRSYM    DATA     BYTE      AUXINTIF
      000000FDH   SFRSYM    DATA     BYTE      S4CON
      000000ACH   SFRSYM    DATA     BYTE      S3CON
      0000009AH   SFRSYM    DATA     BYTE      S2CON
      000000B7H   SFRSYM    DATA     BYTE      IPH
      000000CDH   SFRSYM    DATA     BYTE      SPSTAT
      000000DDH   SFRSYM    DATA     BYTE      T4T3M
      000000C1H   SFRSYM    DATA     BYTE      WDT_CONTR
      000000DFH   SFRSYM    DATA     BYTE      IP3
      000000F4H   SFRSYM    DATA     BYTE      USBCON
      000000B5H   SFRSYM    DATA     BYTE      IP2
      000000FFH   SFRSYM    DATA     BYTE      RSTCFG
      000000C7H   SFRSYM    DATA     BYTE      IAP_CONTR
      000000F9H   SFRSYM    DATA     BYTE      LINICR
      0000008EH   SFRSYM    DATA     BYTE      AUXR
      000000AFH   SFRSYM    DATA     BYTE      IE2
      00000088H   SFRSYM    DATA     BYTE      TCON
      00000089H   SFRSYM    DATA     BYTE      TMOD
      00000098H   SFRSYM    DATA     BYTE      SCON
      000000F1H   SFRSYM    DATA     BYTE      CANICR
      00000087H   SFRSYM    DATA     BYTE      PCON
      000000BCH   SFRSYM    DATA     BYTE      ADC_CONTR
      000000E7H   SFRSYM    DATA     BYTE      CMPCR2
      000000E6H   SFRSYM    DATA     BYTE      CMPCR1
      000000DEH   SFRSYM    DATA     BYTE      ADCCFG
      000000B8H   SFRSYM    DATA     BYTE      IP
      0000008FH   SFRSYM    DATA     BYTE      INTCLKO
      000000EEH   SFRSYM    DATA     BYTE      IP3H
      000000B6H   SFRSYM    DATA     BYTE      IP2H
      000000A8H   SFRSYM    DATA     BYTE      IE
      000000BBH   SFRSYM    DATA     BYTE      P_SW3
      000000BAH   SFRSYM    DATA     BYTE      P_SW2
      000000A2H   SFRSYM    DATA     BYTE      P_SW1
      000000CEH   SFRSYM    DATA     BYTE      SPCTL
      000000F8H   SFRSYM    DATA     BYTE      P7
      000000E8H   SFRSYM    DATA     BYTE      P6
      000000C8H   SFRSYM    DATA     BYTE      P5
      000000C0H   SFRSYM    DATA     BYTE      P4
      000000B0H   SFRSYM    DATA     BYTE      P3
      000000A0H   SFRSYM    DATA     BYTE      P2
      00000090H   SFRSYM    DATA     BYTE      P1
      00000080H   SFRSYM    DATA     BYTE      P0

      ---         MODULE    ---      ---       ModBusDev
      00FF27A9H   PUBLIC    CODE     ---       ReadAck
      00FF3112H   PUBLIC    CODE     ---       WriteAck
      00FF33F8H   PUBLIC    CODE     ---       WriteRegValue
      00FF46CEH   PUBLIC    CODE     ---       SetRegValue
      00FF3382H   PUBLIC    CODE     ---       PackageReg
      00FF41E1H   PUBLIC    CODE     ---       ModBusSaveParam
L251 LINKER/LOCATER V4.66.93.0                                                        05/30/2024  09:54:01  PAGE 34


      00FF36D5H   PUBLIC    CODE     ---       HndModBusRecv
      00010000H   PUBLIC    XDATA    ---       RecvFrame
      00010108H   PUBLIC    XDATA    ---       DevReadAck
      0001020DH   PUBLIC    XDATA    ---       DevWriteAck
      00010215H   PUBLIC    XDATA    ---       ModBusParam
      00010231H   PUBLIC    XDATA    ---       ModBusStatus
      00010245H   PUBLIC    XDATA    ---       ModBusInfo
      000000D0H   SFRSYM    DATA     BYTE      PSW
      0000009DH   SFRSYM    DATA     BYTE      IRCBAND
      00000097H   SFRSYM    DATA     BYTE      AUXR2
      000000EFH   SFRSYM    DATA     BYTE      AUXINTIF
      000000FDH   SFRSYM    DATA     BYTE      S4CON
      000000ACH   SFRSYM    DATA     BYTE      S3CON
      0000009AH   SFRSYM    DATA     BYTE      S2CON
      000000B7H   SFRSYM    DATA     BYTE      IPH
      000000CDH   SFRSYM    DATA     BYTE      SPSTAT
      000000DDH   SFRSYM    DATA     BYTE      T4T3M
      000000C1H   SFRSYM    DATA     BYTE      WDT_CONTR
      000000DFH   SFRSYM    DATA     BYTE      IP3
      000000F4H   SFRSYM    DATA     BYTE      USBCON
      000000B5H   SFRSYM    DATA     BYTE      IP2
      000000FFH   SFRSYM    DATA     BYTE      RSTCFG
      000000C7H   SFRSYM    DATA     BYTE      IAP_CONTR
      000000F9H   SFRSYM    DATA     BYTE      LINICR
      0000008EH   SFRSYM    DATA     BYTE      AUXR
      000000AFH   SFRSYM    DATA     BYTE      IE2
      00000088H   SFRSYM    DATA     BYTE      TCON
      00000089H   SFRSYM    DATA     BYTE      TMOD
      00000098H   SFRSYM    DATA     BYTE      SCON
      000000F1H   SFRSYM    DATA     BYTE      CANICR
      00000087H   SFRSYM    DATA     BYTE      PCON
      000000BCH   SFRSYM    DATA     BYTE      ADC_CONTR
      000000E7H   SFRSYM    DATA     BYTE      CMPCR2
      000000E6H   SFRSYM    DATA     BYTE      CMPCR1
      000000DEH   SFRSYM    DATA     BYTE      ADCCFG
      000000B8H   SFRSYM    DATA     BYTE      IP
      0000008FH   SFRSYM    DATA     BYTE      INTCLKO
      000000EEH   SFRSYM    DATA     BYTE      IP3H
      000000B6H   SFRSYM    DATA     BYTE      IP2H
      000000A8H   SFRSYM    DATA     BYTE      IE
      000000BBH   SFRSYM    DATA     BYTE      P_SW3
      000000BAH   SFRSYM    DATA     BYTE      P_SW2
      000000A2H   SFRSYM    DATA     BYTE      P_SW1
      000000CEH   SFRSYM    DATA     BYTE      SPCTL
      000000F8H   SFRSYM    DATA     BYTE      P7
      000000E8H   SFRSYM    DATA     BYTE      P6
      000000C8H   SFRSYM    DATA     BYTE      P5
      000000C0H   SFRSYM    DATA     BYTE      P4
      000000B0H   SFRSYM    DATA     BYTE      P3
      000000A0H   SFRSYM    DATA     BYTE      P2
      00000090H   SFRSYM    DATA     BYTE      P1
      00000080H   SFRSYM    DATA     BYTE      P0

      ---         MODULE    ---      ---       ModBusHost
      00FF4165H   PUBLIC    CODE     ---       SendTcpFrame
      00FF1D24H   PUBLIC    CODE     ---       HostSendCmd
      00FF421EH   PUBLIC    CODE     ---       PopReg
      00FF44B9H   PUBLIC    CODE     ---       SendBuffer
      00010487H   PUBLIC    XDATA    ---       WriteAckFrame
      0001048FH   PUBLIC    XDATA    ---       HostSendFrame
      00010597H   PUBLIC    XDATA    ---       ReadAckFrame
      0000040AH   PUBLIC    EDATA    WORD      HostBufIndex
      0000040CH   PUBLIC    EDATA    ---       MbId
      000002AAH   PUBLIC    EDATA    BYTE      ?HostSendCmd?BYTE
      000000D0H   SFRSYM    DATA     BYTE      PSW
L251 LINKER/LOCATER V4.66.93.0                                                        05/30/2024  09:54:01  PAGE 35


      0000009DH   SFRSYM    DATA     BYTE      IRCBAND
      00000097H   SFRSYM    DATA     BYTE      AUXR2
      000000EFH   SFRSYM    DATA     BYTE      AUXINTIF
      000000FDH   SFRSYM    DATA     BYTE      S4CON
      000000ACH   SFRSYM    DATA     BYTE      S3CON
      0000009AH   SFRSYM    DATA     BYTE      S2CON
      000000B7H   SFRSYM    DATA     BYTE      IPH
      000000CDH   SFRSYM    DATA     BYTE      SPSTAT
      000000DDH   SFRSYM    DATA     BYTE      T4T3M
      000000C1H   SFRSYM    DATA     BYTE      WDT_CONTR
      000000DFH   SFRSYM    DATA     BYTE      IP3
      000000F4H   SFRSYM    DATA     BYTE      USBCON
      000000B5H   SFRSYM    DATA     BYTE      IP2
      000000FFH   SFRSYM    DATA     BYTE      RSTCFG
      000000C7H   SFRSYM    DATA     BYTE      IAP_CONTR
      000000F9H   SFRSYM    DATA     BYTE      LINICR
      0000008EH   SFRSYM    DATA     BYTE      AUXR
      000000AFH   SFRSYM    DATA     BYTE      IE2
      00000088H   SFRSYM    DATA     BYTE      TCON
      00000089H   SFRSYM    DATA     BYTE      TMOD
      00000098H   SFRSYM    DATA     BYTE      SCON
      000000F1H   SFRSYM    DATA     BYTE      CANICR
      00000087H   SFRSYM    DATA     BYTE      PCON
      000000BCH   SFRSYM    DATA     BYTE      ADC_CONTR
      000000E7H   SFRSYM    DATA     BYTE      CMPCR2
      000000E6H   SFRSYM    DATA     BYTE      CMPCR1
      000000DEH   SFRSYM    DATA     BYTE      ADCCFG
      000000B8H   SFRSYM    DATA     BYTE      IP
      0000008FH   SFRSYM    DATA     BYTE      INTCLKO
      000000EEH   SFRSYM    DATA     BYTE      IP3H
      000000B6H   SFRSYM    DATA     BYTE      IP2H
      000000A8H   SFRSYM    DATA     BYTE      IE
      000000BBH   SFRSYM    DATA     BYTE      P_SW3
      000000BAH   SFRSYM    DATA     BYTE      P_SW2
      000000A2H   SFRSYM    DATA     BYTE      P_SW1
      000000CEH   SFRSYM    DATA     BYTE      SPCTL
      000000F8H   SFRSYM    DATA     BYTE      P7
      000000E8H   SFRSYM    DATA     BYTE      P6
      000000C8H   SFRSYM    DATA     BYTE      P5
      000000C0H   SFRSYM    DATA     BYTE      P4
      000000B0H   SFRSYM    DATA     BYTE      P3
      000000A0H   SFRSYM    DATA     BYTE      P2
      00000090H   SFRSYM    DATA     BYTE      P1
      00000080H   SFRSYM    DATA     BYTE      P0

      ---         MODULE    ---      ---       ?C?FPADD
      00FF013EH   PUBLIC    CODE     ---       ?C?FPADD
      00FF013BH   PUBLIC    CODE     ---       ?C?FPSUB

      ---         MODULE    ---      ---       ?C?FPMUL
      00FF01F6H   PUBLIC    CODE     ---       ?C?FPMUL

      ---         MODULE    ---      ---       ?C?FPDIV
      00FF0296H   PUBLIC    CODE     ---       ?C?FPDIV

      ---         MODULE    ---      ---       ?C?FPCMP
      00FF0319H   PUBLIC    CODE     ---       ?C?FPCMP
      00FF0317H   PUBLIC    CODE     ---       ?C?FPCMP3

      ---         MODULE    ---      ---       ?C?FCAST
      00FF0367H   PUBLIC    CODE     NEAR LAB  ?C?FCASTC
      00FF0362H   PUBLIC    CODE     NEAR LAB  ?C?FCASTI
      00FF035DH   PUBLIC    CODE     NEAR LAB  ?C?FCASTL

      ---         MODULE    ---      ---       ?C?CASTF
L251 LINKER/LOCATER V4.66.93.0                                                        05/30/2024  09:54:01  PAGE 36


      00FF039AH   PUBLIC    CODE     NEAR LAB  ?C?CASTF

      ---         MODULE    ---      ---       SPRINTF
      00000259H   PUBLIC    EDATA    ---       ?SPRINTF?BYTE
      00FF03D7H   PUBLIC    CODE     NEAR LAB  SPRINTF

      ---         MODULE    ---      ---       ?C?FPGETOPN
      00FF03F7H   PUBLIC    CODE     ---       ?C?FPGETOPN2
      00FF0434H   PUBLIC    CODE     ---       ?C?FPNANRESULT
      00FF043CH   PUBLIC    CODE     ---       ?C?FPOVERFLOW
      00FF0410H   PUBLIC    CODE     ---       ?C?FPRESULT
      00FF0426H   PUBLIC    CODE     ---       ?C?FPRESULT2
      00FF0439H   PUBLIC    CODE     ---       ?C?FPUNDERFLOW

      ---         MODULE    ---      ---       ?C?PRNFMT
      00FF0475H   PUBLIC    CODE     ---       ?C?PRNFMT

      ---         MODULE    ---      ---       ?C?FPCONVERT
      00FF0892H   PUBLIC    CODE     ---       ?C?FPCONVERT
      00FF094AH   PUBLIC    CODE     ---       ?C?FPROUND

      ---         MODULE    ---      ---       ?C?FTNPWR
      00FF09BDH   PUBLIC    CODE     ---       ?C?FTNPWR

      ---         MODULE    ---      ---       ?C_START
      00FF0000H   PUBLIC    CODE     ---       ?C?STARTUP
      00FF0000H   PUBLIC    CODE     ---       ?C_STARTUP

      ---         MODULE    ---      ---       ?C?INITEDATA
      00FF3480H   PUBLIC    CODE     ---       ?C?INITEDATA

      ---         MODULE    ---      ---       ?C?INITHDATA
      00FF34A9H   PUBLIC    CODE     ---       ?C?INITHDATA

      ---         MODULE    ---      ---       ?C?SIDIV
      00FF09F4H   PUBLIC    CODE     ---       ?C?SIDIV

      ---         MODULE    ---      ---       ?C?ULDIV
      00FF0A28H   PUBLIC    CODE     NEAR LAB  ?C?ULDIV
      00FF0A26H   PUBLIC    CODE     NEAR LAB  ?C?ULIDIV

      ---         MODULE    ---      ---       ?C?BMOVENP
      00FF0A7BH   PUBLIC    CODE     ---       ?C?BMOVENP
      00FF0A79H   PUBLIC    CODE     ---       ?C?BMOVENP8

      ---         MODULE    ---      ---       STRLEN
      00FF48C0H   PUBLIC    CODE     ---       strlen?_

      ---         MODULE    ---      ---       memcmp
      00FF43ABH   PUBLIC    CODE     ---       memcmp?_

      ---         MODULE    ---      ---       memcpy
      00FF461DH   PUBLIC    CODE     ---       memcpy?_

      ---         MODULE    ---      ---       memset
      00FF4782H   PUBLIC    CODE     ---       memset?_

      ---         MODULE    ---      ---       ?C?INITEDATA_END
      00FF4D63H   PUBLIC    HCONST   WORD      ?C?INITEDATA_END

      ---         MODULE    ---      ---       ?C?INITHDATA_END
      00FF4C0EH   PUBLIC    HCONST   WORD      ?C?INITHDATA_END

Program Size: data=8.4 edata+hdata=1362 xdata=2897 const=1332 code=18669
L251 RUN COMPLETE.  0 WARNING(S),  0 ERROR(S)
