L251 LINKER/LOCATER V4.66.93.0                                                          03/22/2024  16:36:51  PAGE 1


L251 LINKER/LOCATER V4.66.93.0, INVOKED BY:
D:\KEILMDK\C251\BIN\L251.EXE .\obj\ISR.obj, .\obj\main.obj, .\obj\EepRom.obj, .\obj\uart.obj, .\obj\Lcd.obj, .\obj\LcdAp
>> p.obj, .\obj\ModBus.obj, .\obj\Temper.obj, .\obj\FlowMeter.obj, .\obj\ModBusDev.obj, .\obj\ModBusHost.obj TO .\obj\Pi
>> leCore PRINT (.\obj\PileCore.map) CASE REMOVEUNUSED CLASSES (EDATA (0X0-0XFFF), HDATA (0X0-0XFFF))


CPU MODE:     251 SOURCE MODE
INTR FRAME:   4 BYTES SAVED ON INTERRUPT
MEMORY MODEL: XSMALL WITH FLOATING POINT ARITHMETIC


INPUT MODULES INCLUDED:
  .\obj\ISR.obj (ISR)
         COMMENT TYPE 0: A251 V4.69.13.0
  .\obj\main.obj (main)
         COMMENT TYPE 0: C251 V5.60.0
  .\obj\EepRom.obj (EepRom)
         COMMENT TYPE 0: C251 V5.60.0
  .\obj\uart.obj (uart)
         COMMENT TYPE 0: C251 V5.60.0
  .\obj\Lcd.obj (Lcd)
         COMMENT TYPE 0: C251 V5.60.0
  .\obj\LcdApp.obj (LcdApp)
         COMMENT TYPE 0: C251 V5.60.0
  .\obj\ModBus.obj (ModBus)
         COMMENT TYPE 0: C251 V5.60.0
  .\obj\Temper.obj (Temper)
         COMMENT TYPE 0: C251 V5.60.0
  .\obj\FlowMeter.obj (FlowMeter)
         COMMENT TYPE 0: C251 V5.60.0
  .\obj\ModBusDev.obj (ModBusDev)
         COMMENT TYPE 0: C251 V5.60.0
  .\obj\ModBusHost.obj (ModBusHost)
         COMMENT TYPE 0: C251 V5.60.0
  D:\KEILMDK\C251\LIB\C2SFPXS.LIB (?C?FPADD)
         COMMENT TYPE 0: A251 V4.69.6.0
  D:\KEILMDK\C251\LIB\C2SFPXS.LIB (?C?FPMUL)
         COMMENT TYPE 0: A251 V4.69.6.0
  D:\KEILMDK\C251\LIB\C2SFPXS.LIB (?C?FPDIV)
         COMMENT TYPE 0: A251 V4.69.6.0
  D:\KEILMDK\C251\LIB\C2SFPXS.LIB (?C?FPCMP)
         COMMENT TYPE 0: A251 V4.69.6.0
  D:\KEILMDK\C251\LIB\C2SFPXS.LIB (?C?FCAST)
         COMMENT TYPE 0: A251 V4.69.6.0
  D:\KEILMDK\C251\LIB\C2SFPXS.LIB (?C?CASTF)
         COMMENT TYPE 0: A251 V4.69.6.0
  D:\KEILMDK\C251\LIB\C2SFPXS.LIB (SPRINTF)
         COMMENT TYPE 0: A251 V4.69.6.0
  D:\KEILMDK\C251\LIB\C2SFPXS.LIB (?C?FPGETOPN)
         COMMENT TYPE 0: A251 V4.69.6.0
  D:\KEILMDK\C251\LIB\C2SFPXS.LIB (?C?PRNFMT)
         COMMENT TYPE 0: A251 V4.69.6.0
  D:\KEILMDK\C251\LIB\C2SFPXS.LIB (?C?FPCONVERT)
         COMMENT TYPE 0: A251 V4.69.6.0
  D:\KEILMDK\C251\LIB\C2SFPXS.LIB (?C?FTNPWR)
         COMMENT TYPE 0: A251 V4.69.6.0
  D:\KEILMDK\C251\LIB\C2SXS.LIB (?C_START)
         COMMENT TYPE 0: A251 V4.69.6.0
  D:\KEILMDK\C251\LIB\C2SXS.LIB (?C?INITEDATA)
         COMMENT TYPE 0: A251 V4.69.6.0
  D:\KEILMDK\C251\LIB\C2SXS.LIB (?C?INITHDATA)
         COMMENT TYPE 0: A251 V4.69.6.0
  D:\KEILMDK\C251\LIB\C2SXS.LIB (?C?SIDIV)
         COMMENT TYPE 0: A251 V4.69.6.0
  D:\KEILMDK\C251\LIB\C2SXS.LIB (?C?ULDIV)
         COMMENT TYPE 0: A251 V4.69.6.0
L251 LINKER/LOCATER V4.66.93.0                                                        03/22/2024  16:36:51  PAGE 2


  D:\KEILMDK\C251\LIB\C2SXS.LIB (?C?BMOVENP)
         COMMENT TYPE 0: A251 V4.69.6.0
  D:\KEILMDK\C251\LIB\C2SXS.LIB (STRLEN)
         COMMENT TYPE 0: C251 V5.58.7
  D:\KEILMDK\C251\LIB\C2SXS.LIB (memcmp)
         COMMENT TYPE 0: C251 V5.58.7
  D:\KEILMDK\C251\LIB\C2SXS.LIB (memcpy)
         COMMENT TYPE 0: C251 V5.58.7
  D:\KEILMDK\C251\LIB\C2SXS.LIB (memset)
         COMMENT TYPE 0: C251 V5.58.7
  D:\KEILMDK\C251\LIB\C2SXS.LIB (?C?INITEDATA_END)
         COMMENT TYPE 0: A251 V4.69.6.0
  D:\KEILMDK\C251\LIB\C2SXS.LIB (?C?INITHDATA_END)
         COMMENT TYPE 0: A251 V4.69.6.0


ACTIVE MEMORY CLASSES OF MODULE:  .\obj\PileCore (ISR)

BASE        START       END         USED      MEMORY CLASS
==========================================================
000000H     000000H     000FFFH     000558H   EDATA
000000H     000000H     000FFFH               HDATA
FF0000H     FF0000H     FFFFFFH     003DE3H   CODE
000000H     FF0000H     FFFFFFH     000524H   HCONST
010000H     010000H     01FFFFH     000A52H   XDATA
000020H.0   000020H.0   00002FH.7   000000H.4 BIT
FF0000H     FF0000H     FFFFFFH     000004H   CONST
000000H     000000H     00007FH     000008H   DATA


MEMORY MAP OF MODULE:  .\obj\PileCore (ISR)


START     STOP      LENGTH    ALIGN  RELOC    MEMORY CLASS   SEGMENT NAME
=========================================================================
000000H   000007H   000008H   ---    AT..     DATA           "REG BANK 0"
000008H   00001DH   000016H   BYTE   UNIT     EDATA          ?ED?SETLCDTIME?LCD
00001EH   00001FH   000002H   BYTE   UNIT     EDATA          ?ED?DEBUGINT?MAIN
000020H.0 000020H.3 000000H.4 BIT    UNIT     BIT            ?BI?UART
000020H.4 000020H   000000H.4 ---    ---      **GAP**
000021H   0001C0H   0001A0H   BYTE   UNIT     EDATA          ?ED?UART
0001C1H   00023EH   00007EH   BYTE   UNIT     EDATA          ?ED?MAIN
00023FH   000266H   000028H   BYTE   UNIT     EDATA          _EDATA_GROUP_
000267H   000280H   00001AH   BYTE   UNIT     EDATA          ?ED?SETCURTIME?LCDAPP
000281H   000294H   000014H   BYTE   UNIT     EDATA          ?ED?CRC16CALC?MODBUS
000295H   0002A6H   000012H   BYTE   UNIT     EDATA          ?ED?EEPROM_WRITE?EEPROM
0002A7H   0002B7H   000011H   BYTE   UNIT     EDATA          ?ED?LCDAPP
0002B8H   0002C8H   000011H   BYTE   UNIT     EDATA          ?ED?HOSTSENDCMD?MODBUSHOST
0002C9H   0002D4H   00000CH   BYTE   UNIT     EDATA          ?ED?LCDCMD?LCD
0002D5H   0002E0H   00000CH   BYTE   UNIT     EDATA          ?ED?FLOATTOBYTES?MODBUS
0002E1H   0002ECH   00000CH   BYTE   UNIT     EDATA          ?ED?BYTESTOFLOAT?MODBUS
0002EDH   0002F8H   00000CH   BYTE   UNIT     EDATA          ?ED?BYTESTODWORD?MODBUS
0002F9H   000304H   00000CH   BYTE   UNIT     EDATA          ?ED?PACKAGEREG?MODBUSDEV
000305H   000310H   00000CH   BYTE   UNIT     EDATA          ?ED?WRITEREGVALUE?MODBUSDEV
000311H   00031AH   00000AH   BYTE   UNIT     EDATA          ?ED?PARAMCHECK?MAIN
00031BH   000324H   00000AH   BYTE   UNIT     EDATA          ?ED?EEPROM_READ?EEPROM
000325H   00032EH   00000AH   BYTE   UNIT     EDATA          ?ED?SETRUNTIME?LCDAPP
00032FH   000338H   00000AH   BYTE   UNIT     EDATA          ?ED?PACKAGEFLOATVALUE?MODBUSDEV
000339H   000342H   00000AH   BYTE   UNIT     EDATA          ?ED?PACKAGEDWORDVALUE?MODBUSDEV
000343H   00034CH   00000AH   BYTE   UNIT     EDATA          ?ED?SENDTCPFRAME?MODBUSHOST
00034DH   000355H   000009H   BYTE   UNIT     EDATA          ?ED?READFLOW?FLOWMETER
000356H   00035DH   000008H   BYTE   UNIT     EDATA          ?ED?BYTECONVERT?MODBUS
00035EH   000365H   000008H   BYTE   UNIT     EDATA          ?ED?BYTESTOWORD?MODBUS
000366H   00036DH   000008H   BYTE   UNIT     EDATA          ?ED?SWENDIAN?MODBUS
00036EH   000374H   000007H   BYTE   UNIT     EDATA          ?ED?GETFLOW?MAIN
L251 LINKER/LOCATER V4.66.93.0                                                        03/22/2024  16:36:51  PAGE 3


000375H   00037BH   000007H   BYTE   UNIT     EDATA          ?ED?VALIDRTUFRAME?MODBUS
00037CH   000382H   000007H   BYTE   UNIT     EDATA          ?ED?SENDBUFFER?MODBUSHOST
000383H   000388H   000006H   BYTE   UNIT     EDATA          ?ED?DUMPCMD?MAIN
000389H   00038EH   000006H   BYTE   UNIT     EDATA          ?ED?UART1SEND?UART
00038FH   000394H   000006H   BYTE   UNIT     EDATA          ?ED?UART2SEND?UART
000395H   00039AH   000006H   BYTE   UNIT     EDATA          ?ED?UART3SEND?UART
00039BH   0003A0H   000006H   BYTE   UNIT     EDATA          ?ED?UART4SEND?UART
0003A1H   0003A6H   000006H   BYTE   UNIT     EDATA          ?ED?VALIDLCDFRAME?LCD
0003A7H   0003ACH   000006H   BYTE   UNIT     EDATA          ?ED?POPWORD?LCD
0003ADH   0003B2H   000006H   BYTE   UNIT     EDATA          ?ED?SHOWMODULE?LCD
0003B3H   0003B8H   000006H   BYTE   UNIT     EDATA          ?ED?READREG?LCDAPP
0003B9H   0003BEH   000006H   BYTE   UNIT     EDATA          ?ED?VALIDTCPFRAME?MODBUS
0003BFH   0003C4H   000006H   BYTE   UNIT     EDATA          ?ED?GET_TEMPERATURE?TEMPER
0003C5H   0003CAH   000006H   BYTE   UNIT     EDATA          ?ED?FLOWMETERACK?FLOWMETER
0003CBH   0003D0H   000006H   BYTE   UNIT     EDATA          ?ED?PACKAGEWORDVALUE?MODBUSDEV
0003D1H   0003D6H   000006H   BYTE   UNIT     EDATA          ?ED?READACK?MODBUSDEV
0003D7H   0003DBH   000005H   BYTE   UNIT     EDATA          ?ED?DEBUGMSG?MAIN
0003DCH   0003E0H   000005H   BYTE   UNIT     EDATA          ?ED?CHECKALARM?MAIN
0003E1H   0003E5H   000005H   BYTE   UNIT     EDATA          ?ED?CHECKDATALEN?LCD
0003E6H   0003EAH   000005H   BYTE   UNIT     EDATA          ?ED?ENTERPAGE?LCD
0003EBH   0003EFH   000005H   BYTE   UNIT     EDATA          ?ED?HNDMODBUSRECV?MODBUSDEV
0003F0H   0003F3H   000004H   BYTE   UNIT     EDATA          ?ED?RUNLED?MAIN
0003F4H   0003F7H   000004H   BYTE   UNIT     EDATA          ?ED?DELAY?MAIN
0003F8H   0003FBH   000004H   BYTE   UNIT     EDATA          ?ED?EEPROM_SECTORERASE?EEPROM
0003FCH   0003FFH   000004H   BYTE   UNIT     EDATA          ?ED?SWDWORD?LCD
000400H   000403H   000004H   BYTE   UNIT     EDATA          ?ED?HNDLCDFRAME?LCD
000404H   000407H   000004H   BYTE   UNIT     EDATA          ?ED?SETTEXTCOLOR?LCD
000408H   00040BH   000004H   BYTE   UNIT     EDATA          ?ED?HIDEMODULE?LCD
00040CH   00040FH   000004H   BYTE   UNIT     EDATA          ?ED?SHOWTEMP?LCDAPP
000410H   000413H   000004H   BYTE   UNIT     EDATA          ?ED?SWENDIANW?MODBUS
000414H   000417H   000004H   BYTE   UNIT     EDATA          ?ED?TEMPER
000418H   00041BH   000004H   BYTE   UNIT     EDATA          ?ED?MODBUSHOST
00041CH   00041EH   000003H   BYTE   UNIT     EDATA          ?ED?LCD
00041FH   000421H   000003H   BYTE   UNIT     EDATA          ?ED?SETBKLIGHT?LCD
000422H   000424H   000003H   BYTE   UNIT     EDATA          ?ED?SHOWEMSTOP?LCDAPP
000425H   000427H   000003H   BYTE   UNIT     EDATA          ?ED?GET_ADC12BITRESULT?TEMPER
000428H   00042AH   000003H   BYTE   UNIT     EDATA          ?ED?SENDREADFLOW?FLOWMETER
00042BH   00042CH   000002H   BYTE   UNIT     EDATA          ?ED?OUTCTL?MAIN
00042DH   00042EH   000002H   BYTE   UNIT     EDATA          ?ED?TIMERTASK?MAIN
00042FH   000430H   000002H   BYTE   UNIT     EDATA          ?ED?DELAY_MS?MAIN
000431H   000432H   000002H   BYTE   UNIT     EDATA          ?ED?STOPSAMP?MAIN
000433H   000434H   000002H   BYTE   UNIT     EDATA          ?ED?ABNORALAERM?MAIN
000435H   000436H   000002H   BYTE   UNIT     EDATA          ?ED?SWWORD?LCD
000437H   000438H   000002H   BYTE   UNIT     EDATA          ?ED?SHOWDEVINFO?LCDAPP
000439H   00043AH   000002H   BYTE   UNIT     EDATA          ?ED?STARTBUTTON?LCDAPP
00043BH   00043CH   000002H   BYTE   UNIT     EDATA          ?ED?VERIFYPASSWORD?LCDAPP
00043DH   00043EH   000002H   BYTE   UNIT     EDATA          ?ED?RETURNSTART?LCDAPP
00043FH   000440H   000002H   BYTE   UNIT     EDATA          ?ED?SAMPCTL?LCDAPP
000441H   000442H   000002H   BYTE   UNIT     EDATA          ?ED?STATUSCOLOR?LCDAPP
000443H   000444H   000002H   BYTE   UNIT     EDATA          ?ED?SETCHCOUNT?LCDAPP
000445H   000446H   000002H   BYTE   UNIT     EDATA          ?ED?REGSW?MODBUS
000447H   000448H   000002H   BYTE   UNIT     EDATA          ?ED?WRITEACK?MODBUSDEV
000449H   00044AH   000002H   BYTE   UNIT     EDATA          ?ED?POPREG?MODBUSHOST
00044BH   00044BH   000001H   BYTE   UNIT     EDATA          ?ED?OUTFLASH?MAIN
00044CH   00044CH   000001H   BYTE   UNIT     EDATA          ?ED?IOCTLTASK?MAIN
00044DH   00044DH   000001H   BYTE   UNIT     EDATA          ?ED?GETINPUT?MAIN
00044EH   00044EH   000001H   BYTE   UNIT     EDATA          ?ED?PARAMDEF?MAIN
00044FH   00044FH   000001H   BYTE   UNIT     EDATA          ?ED?UPDATAUI?MAIN
000450H   000450H   000001H   BYTE   UNIT     EDATA          ?ED?STARTSAMP?MAIN
000451H   000451H   000001H   BYTE   UNIT     EDATA          ?ED?GETVALVE?MAIN
000452H   000452H   000001H   BYTE   UNIT     EDATA          ?ED?CHECKVALVE?MAIN
000453H   000453H   000001H   BYTE   UNIT     EDATA          ?ED?SENDREADFLOWCMD?MAIN
000454H   000454H   000001H   BYTE   UNIT     EDATA          ?ED?GETALARM?MAIN
000455H   000455H   000001H   BYTE   UNIT     EDATA          ?ED?SYNCMODBUSDEV?MAIN
000456H   000456H   000001H   BYTE   UNIT     EDATA          ?ED?REMPAGECTL?MAIN
L251 LINKER/LOCATER V4.66.93.0                                                        03/22/2024  16:36:51  PAGE 4


000457H   000457H   000001H   BYTE   UNIT     EDATA          ?ED?PUTCHAR?UART
000458H   000458H   000001H   BYTE   UNIT     EDATA          ?ED?UART4HND?UART
000459H   000459H   000001H   BYTE   UNIT     EDATA          ?ED?GETLCDTIME?LCD
00045AH   00045AH   000001H   BYTE   UNIT     EDATA          ?ED?SETSTARTBTN?LCDAPP
00045BH   00045BH   000001H   BYTE   UNIT     EDATA          ?ED?GETRETCODE?LCDAPP
00045CH   00045CH   000001H   BYTE   UNIT     EDATA          ?ED?SHOWSTATUS?LCDAPP
00045DH   00045DH   000001H   BYTE   UNIT     EDATA          ?ED?SHOWREMCH?LCDAPP
00045EH   00045EH   000001H   BYTE   UNIT     EDATA          ?ED?SENDPARAM?LCDAPP
00045FH   00045FH   000001H   BYTE   UNIT     EDATA          ?ED?GETINPUTTIME?LCDAPP
000460H   000460H   000001H   BYTE   UNIT     EDATA          ?ED?MODBUSSAVEPARAM?MODBUSDEV
000461H   000560H   000100H   BYTE   UNIT     EDATA          ?STACK
000561H   00FFFFH   00FA9FH   ---    ---      **GAP**
010000H   010248H   000249H   BYTE   INSEG    XDATA          ?XD?MODBUSDEV
010249H   01045DH   000215H   BYTE   INSEG    XDATA          ?XD?MODBUSHOST
01045EH   0105F5H   000198H   BYTE   INSEG    XDATA          ?XD?LCDAPP
0105F6H   010785H   000190H   BYTE   INSEG    XDATA          ?XD?UART
010786H   010915H   000190H   BYTE   INSEG    XDATA          ?XD?LCD
010916H   0109E5H   0000D0H   BYTE   INSEG    XDATA          ?XD?MAIN
0109E6H   010A51H   00006CH   BYTE   INSEG    XDATA          ?XD?FLOWMETER
010A52H   FEFFFFH   FDF5AEH   ---    ---      **GAP**
FF0000H   FF0002H   000003H   ---    OFFS..   CODE           ?CO?start251?4
FF0003H   FF0009H   000007H   BYTE   INSEG    CODE           ?PR?OPENPUMP?MAIN
FF000AH   FF000AH   000001H   BYTE   UNIT     CODE           ?CO?MAIN
FF000BH   FF000DH   000003H   ---    OFFS..   CODE           ?PR?IV?1
FF000EH   FF0021H   000014H   BYTE   INSEG    CODE           ?PR?RUNCHECK?MAIN
FF0022H   FF0022H   000001H   BYTE   INSEG    CODE           ?PR?WRITEREG?LCDAPP
FF0023H   FF0025H   000003H   ---    OFFS..   CODE           ?PR?IV?4
FF0026H   FF0040H   00001BH   BYTE   INSEG    CODE           ?PR?CLEARREVBUF?LCD
FF0041H   FF0042H   000002H   ---    ---      **GAP**
FF0043H   FF0045H   000003H   ---    OFFS..   CODE           ?PR?IV?8
FF0046H   FF008AH   000045H   BYTE   INSEG    CODE           ?PR?WRITEPARAM?MAIN
FF008BH   FF008DH   000003H   ---    OFFS..   CODE           ?PR?IV?17
FF008EH   FF0092H   000005H   BYTE   INSEG    CODE           ?PR?SWDWORD?LCD
FF0093H   FF0095H   000003H   ---    OFFS..   CODE           ?PR?IV?18
FF0096H   FF012AH   000095H   BYTE   INSEG    CODE           ?PR?MAIN?MAIN
FF012BH   FF012FH   000005H   ---    OFFS..   CODE           ?CO?ISR?1
FF0130H   FF0132H   000003H   ---    ---      **GAP**
FF0133H   FF0137H   000005H   ---    OFFS..   CODE           ?CO?ISR?2
FF0138H   FF0A9DH   000966H   BYTE   UNIT     CODE           ?C?LIB_CODE
FF0A9EH   FF0DAEH   000311H   BYTE   INSEG    CODE           ?PR?CHECKALARM?MAIN
FF0DAFH   FF10B1H   000303H   BYTE   INSEG    CODE           ?PR?READREG?LCDAPP
FF10B2H   FF124CH   00019BH   BYTE   INSEG    CODE           ?PR?GETFLOW?MAIN
FF124DH   FF13C0H   000174H   BYTE   INSEG    CODE           ?PR?REMPAGECTL?MAIN
FF13C1H   FF1532H   000172H   BYTE   INSEG    CODE           ?PR?OUTCTL?MAIN
FF1533H   FF1674H   000142H   BYTE   UNIT     CODE           ?CO?TEMPER
FF1675H   FF17A8H   000134H   BYTE   INSEG    CODE           ?PR?HOSTSENDCMD?MODBUSHOST
FF17A9H   FF18C8H   000120H   BYTE   INSEG    CODE           ?PR?SENDPARAM?LCDAPP
FF18C9H   FF19DFH   000117H   BYTE   INSEG    CODE           ?PR?TIMERTASK?MAIN
FF19E0H   FF1AF4H   000115H   BYTE   INSEG    CODE           ?PR?EEPROM_WRITE?EEPROM
FF1AF5H   FF1C04H   000110H   BYTE   INSEG    CODE           ?PR?CHECKVALVE?MAIN
FF1C05H   FF1D0EH   00010AH   BYTE   INSEG    CODE           ?PR?SHOWSTATUS?LCDAPP
FF1D0FH   FF1DF7H   0000E9H   BYTE   INSEG    CODE           ?PR?GETVALVE?MAIN
FF1DF8H   FF1ED5H   0000DEH   BYTE   INSEG    CODE           ?PR?SHOWDEVINFO?LCDAPP
FF1ED6H   FF1FAFH   0000DAH   BYTE   INSEG    CODE           ?PR?READFLOW?FLOWMETER
FF1FB0H   FF2083H   0000D4H   BYTE   INSEG    CODE           ?PR?READACK?MODBUSDEV
FF2084H   FF2146H   0000C3H   BYTE   INSEG    CODE           ?PR?SETCURTIME?LCDAPP
FF2147H   FF2200H   0000BAH   BYTE   INSEG    CODE           ?PR?CRC16CALC?MODBUS
FF2201H   FF22B7H   0000B7H   BYTE   INSEG    CODE           ?PR?RETURNSTART?LCDAPP
FF22B8H   FF236CH   0000B5H   BYTE   INSEG    CODE           ?PR?LCDCMD?LCD
FF236DH   FF241AH   0000AEH   BYTE   INSEG    CODE           ?PR?SETLCDTIME?LCD
FF241BH   FF24C2H   0000A8H   BYTE   INSEG    CODE           ?PR?DUMPCMD?MAIN
FF24C3H   FF2566H   0000A4H   BYTE   INSEG    CODE           ?PR?STOPSAMP?MAIN
FF2567H   FF25FDH   000097H   BYTE   INSEG    CODE           ?PR?STATUSCOLOR?LCDAPP
FF25FEH   FF268BH   00008EH   BYTE   INSEG    CODE           ?PR?PARAMDEF?MAIN
FF268CH   FF2717H   00008CH   BYTE   INSEG    CODE           ?PR?GET_TEMPERATURE?TEMPER
L251 LINKER/LOCATER V4.66.93.0                                                        03/22/2024  16:36:51  PAGE 5


FF2718H   FF27A0H   000089H   BYTE   INSEG    CODE           ?PR?ABNORALAERM?MAIN
FF27A1H   FF2829H   000089H   BYTE   INSEG    CODE           ?PR?MODEHINT?LCDAPP
FF282AH   FF28AFH   000086H   BYTE   INSEG    CODE           ?PR?WRITEACK?MODBUSDEV
FF28B0H   FF2927H   000078H   BYTE   INSEG    CODE           ?PR?SETRUNTIME?LCDAPP
FF2928H   FF299DH   000076H   BYTE   INSEG    CODE           ?PR?PACKAGEREG?MODBUSDEV
FF299EH   FF2A12H   000075H   BYTE   INSEG    CODE           ?PR?WRITEREGVALUE?MODBUSDEV
FF2A13H   FF2A85H   000073H   BYTE   INSEG    CODE           ?PR?STARTSAMP?MAIN
FF2A86H   FF2AF7H   000072H   BYTE   INSEG    CODE           ?PR?SYNCMODBUSDEV?MAIN
FF2AF8H   FF2B69H   000072H   BYTE   INSEG    CODE           ?PR?INITLCD?MAIN
FF2B6AH   FF2B7CH   000013H   BYTE   UNIT     CODE           ?C_C51STARTUP
FF2B7DH   FF2BD6H   00005AH   BYTE   UNIT     CODE           ?C_C51STARTUP?2
FF2BD7H   FF2BD9H   000003H   BYTE   UNIT     CODE           ?C_C51STARTUP?3
FF2BDAH   FF2C45H   00006CH   BYTE   INSEG    CODE           ?PR?EEPROM_READ?EEPROM
FF2C46H   FF2CABH   000066H   BYTE   INSEG    CODE           ?PR?GETALARM?MAIN
FF2CACH   FF2D0FH   000064H   BYTE   INSEG    CODE           ?PR?VALIDLCDFRAME?LCD
FF2D10H   FF2D70H   000061H   BYTE   INSEG    CODE           ?PR?UPDATAUI?MAIN
FF2D71H   FF2DD1H   000061H   BYTE   INSEG    CODE           ?PR?OUTFLASH?MAIN
FF2DD2H   FF2E2CH   00005BH   BYTE   INSEG    CODE           ?PR?HNDMODBUSRECV?MODBUSDEV
FF2E2DH   FF2E86H   00005AH   BYTE   INSEG    CODE           ?PR?HNDINPUT?MAIN
FF2E87H   FF2EE0H   00005AH   BYTE   UNIT     CODE           ?CO?LCDAPP
FF2EE1H   FF2F37H   000057H   BYTE   INSEG    CODE           ?PR?UART2_INT?UART
FF2F38H   FF2F8EH   000057H   BYTE   INSEG    CODE           ?PR?UART3_INT?UART
FF2F8FH   FF2FE4H   000056H   BYTE   INSEG    CODE           ?PR?ADC_TEMP?TEMPER
FF2FE5H   FF3039H   000055H   BYTE   INSEG    CODE           ?PR?POPWORD?LCD
FF303AH   FF308EH   000055H   BYTE   INSEG    CODE           ?PR?FLOWMETERACK?FLOWMETER
FF308FH   FF30E0H   000052H   BYTE   INSEG    CODE           ?PR?IOCTLTASK?MAIN
FF30E1H   FF312FH   00004FH   BYTE   INSEG    CODE           ?PR?UART1_CONFIG?UART
FF3130H   FF317CH   00004DH   BYTE   INSEG    CODE           ?PR?TASK1S?MAIN
FF317DH   FF31C9H   00004DH   BYTE   INSEG    CODE           ?PR?UART2HND?UART
FF31CAH   FF3216H   00004DH   BYTE   INSEG    CODE           ?PR?SETSAMPMODE?LCDAPP
FF3217H   FF3262H   00004CH   BYTE   INSEG    CODE           ?PR?PARAMCHECK?MAIN
FF3263H   FF32AEH   00004CH   BYTE   INSEG    CODE           ?PR?SETBKLIGHT?LCD
FF32AFH   FF32F9H   00004BH   BYTE   INSEG    CODE           ?PR?UART4_INT?UART
FF32FAH   FF3342H   000049H   BYTE   INSEG    CODE           ?PR?UART2_CONFIG?UART
FF3343H   FF338AH   000048H   BYTE   INSEG    CODE           ?PR?HNDLCDFRAME?LCD
FF338BH   FF33D1H   000047H   BYTE   INSEG    CODE           ?PR?RUNLED?MAIN
FF33D2H   FF3418H   000047H   BYTE   INSEG    CODE           ?PR?DELAY?MAIN
FF3419H   FF345FH   000047H   BYTE   INSEG    CODE           ?PR?UART1_INT?UART
FF3460H   FF34A5H   000046H   BYTE   INSEG    CODE           ?PR?UART3SEND?UART
FF34A6H   FF34EBH   000046H   BYTE   INSEG    CODE           ?PR?UART4SEND?UART
FF34ECH   FF3530H   000045H   BYTE   INSEG    CODE           ?PR?READPARAM?MAIN
FF3531H   FF3575H   000045H   BYTE   INSEG    CODE           ?PR?ENTERPAGE?LCD
FF3576H   FF35B9H   000044H   BYTE   INSEG    CODE           ?PR?GET_ADC12BITRESULT?TEMPER
FF35BAH   FF35F9H   000040H   BYTE   INSEG    CODE           ?PR?UART2SEND?UART
FF35FAH   FF3638H   00003FH   BYTE   INSEG    CODE           ?PR?SENDTCPFRAME?MODBUSHOST
FF3639H   FF3675H   00003DH   BYTE   INSEG    CODE           ?PR?TIMER0INT?MAIN
FF3676H   FF36B2H   00003DH   BYTE   INSEG    CODE           ?PR?POPREG?MODBUSHOST
FF36B3H   FF36EDH   00003BH   BYTE   INSEG    CODE           ?PR?DEBUGINT?MAIN
FF36EEH   FF3727H   00003AH   BYTE   INSEG    CODE           ?PR?IOINIT?MAIN
FF3728H   FF3760H   000039H   BYTE   INSEG    CODE           ?PR?FLOWTASK?MAIN
FF3761H   FF3799H   000039H   BYTE   INSEG    CODE           ?PR?UART4HND?UART
FF379AH   FF37CEH   000035H   BYTE   INSEG    CODE           ?PR?UART3_CONFIG?UART
FF37CFH   FF3802H   000034H   BYTE   INSEG    CODE           ?PR?DEVRUN?MAIN
FF3803H   FF3836H   000034H   BYTE   INSEG    CODE           ?PR?TIMINGMODE?MAIN
FF3837H   FF386AH   000034H   BYTE   INSEG    CODE           ?PR?UART4_CONFIG?UART
FF386BH   FF389DH   000033H   BYTE   INSEG    CODE           ?PR?VOLUMEMODE?MAIN
FF389EH   FF38D0H   000033H   BYTE   INSEG    CODE           ?PR?MODBUSSAVEPARAM?MODBUSDEV
FF38D1H   FF38FFH   00002FH   BYTE   INSEG    CODE           ?PR?MEMCMP?_?MEMCMP
FF3900H   FF392CH   00002DH   BYTE   INSEG    CODE           ?PR?EEPROM_SECTORERASE?EEPROM
FF392DH   FF3959H   00002DH   BYTE   INSEG    CODE           ?PR?CHECKDATALEN?LCD
FF395AH   FF3986H   00002DH   BYTE   INSEG    CODE           ?PR?GETLCDTIME?LCD
FF3987H   FF39B2H   00002CH   BYTE   INSEG    CODE           ?PR?SAMPCTL?LCDAPP
FF39B3H   FF39DEH   00002CH   BYTE   INSEG    CODE           ?PR?SETSTARTBTN?LCDAPP
FF39DFH   FF3A09H   00002BH   BYTE   INSEG    CODE           ?PR?SENDBUFFER?MODBUSHOST
FF3A0AH   FF3A32H   000029H   BYTE   INSEG    CODE           ?PR?VERIFYPASSWORD?LCDAPP
L251 LINKER/LOCATER V4.66.93.0                                                        03/22/2024  16:36:51  PAGE 6


FF3A33H   FF3A5AH   000028H   BYTE   INSEG    CODE           ?PR?SYSINIT?MAIN
FF3A5BH   FF3A81H   000027H   BYTE   INSEG    CODE           ?PR?STARTBUTTON?LCDAPP
FF3A82H   FF3AA8H   000027H   BYTE   INSEG    CODE           ?PR?VALIDRTUFRAME?MODBUS
FF3AA9H   FF3ACFH   000027H   BYTE   INSEG    CODE           ?PR?SENDREADFLOW?FLOWMETER
FF3AD0H   FF3AF5H   000026H   BYTE   INSEG    CODE           ?PR?HIDEMODULE?LCD
FF3AF6H   FF3B1AH   000025H   BYTE   INSEG    CODE           ?PR?UART3HND?UART
FF3B1BH   FF3B3FH   000025H   BYTE   INSEG    CODE           ?PR?MEMCPY?_?MEMCPY
FF3B40H   FF3B63H   000024H   BYTE   INSEG    CODE           ?PR?SHOWMODULE?LCD
FF3B64H   FF3B86H   000023H   BYTE   INSEG    CODE           ?PR?SENDREADFLOWCMD?MAIN
FF3B87H   FF3BA9H   000023H   BYTE   INSEG    CODE           ?PR?GETINPUTTIME?LCDAPP
FF3BAAH   FF3BCBH   000022H   BYTE   INSEG    CODE           ?PR?SHOWFLOW?LCDAPP
FF3BCCH   FF3BECH   000021H   BYTE   INSEG    CODE           ?PR?SETREGVALUE?MODBUSDEV
FF3BEDH   FF3C0CH   000020H   BYTE   INSEG    CODE           ?PR?GETRETCODE?LCDAPP
FF3C0DH   FF3C2BH   00001FH   BYTE   INSEG    CODE           ?PR?SETTEXTCOLOR?LCD
FF3C2CH   FF3C4AH   00001FH   BYTE   INSEG    CODE           ?PR?SHOWEMSTOP?LCDAPP
FF3C4BH   FF3C64H   00001AH   BYTE   INSEG    CODE           ?PR?SHOWREMCH?LCDAPP
FF3C65H   FF3C7EH   00001AH   BYTE   INSEG    CODE           ?PR?MEMSET?_?MEMSET
FF3C7FH   FF3C97H   000019H   BYTE   INSEG    CODE           ?PR?CLOSEVALVE?MAIN
FF3C98H   FF3CB0H   000019H   BYTE   INSEG    CODE           ?PR?SHOWTEMP?LCDAPP
FF3CB1H   FF3CC8H   000018H   BYTE   INSEG    CODE           ?PR?TIMER0INIT?MAIN
FF3CC9H   FF3CE0H   000018H   BYTE   INSEG    CODE           ?PR?EEPROM_TRIG?EEPROM
FF3CE1H   FF3CF8H   000018H   BYTE   INSEG    CODE           ?PR?ADC_INIT?TEMPER
FF3CF9H   FF3D0FH   000017H   BYTE   INSEG    CODE           ?PR?ERROR?MAIN
FF3D10H   FF3D26H   000017H   BYTE   INSEG    CODE           ?PR?HNDLCDDATA?LCD
FF3D27H   FF3D3CH   000016H   BYTE   INSEG    CODE           ?PR?DISABLEEEPROM?EEPROM
FF3D3DH   FF3D52H   000016H   BYTE   INSEG    CODE           ?PR?CLEARUART2BUF?UART
FF3D53H   FF3D68H   000016H   BYTE   INSEG    CODE           ?PR?CLEARUART3BUF?UART
FF3D69H   FF3D7EH   000016H   BYTE   INSEG    CODE           ?PR?UART1HND?UART
FF3D7FH   FF3D91H   000013H   BYTE   INSEG    CODE           ?PR?LEDINIT?MAIN
FF3D92H   FF3DA3H   000012H   BYTE   INSEG    CODE           ?PR?CLEARUART1BUF?UART
FF3DA4H   FF3DB5H   000012H   BYTE   INSEG    CODE           ?PR?CLEARUART4BUF?UART
FF3DB6H   FF3DC3H   00000EH   BYTE   INSEG    CODE           ?PR?STRLEN?_?STRLEN
FF3DC4H   FF3DCFH   00000CH   BYTE   INSEG    CODE           ?PR?DEBUGMSG?MAIN
FF3DD0H   FF3DD5H   000006H   BYTE   INSEG    CODE           ?PR?CLOSEPUMP?MAIN
FF3DD6H   FF3DDAH   000005H   BYTE   INSEG    CODE           ?PR?SWWORD?LCD
FF3DDBH   FF3DDFH   000005H   BYTE   INSEG    CODE           ?PR?REGSW?MODBUS
FF3DE0H   FF3DE3H   000004H   BYTE   INSEG    CODE           ?PR?SAVEPARAM?MAIN
FF3DE4H   FF3DE7H   000004H   BYTE   INSEG    CODE           ?PR?REMCTLTASK?MAIN
FF3DE8H   FF3DEBH   000004H   BYTE   UNIT     CONST          ?CO?PRINTF
FF3DECH   FF40EBH   000300H   BYTE   UNIT     HCONST         ?C_INITHDATA
FF40ECH   FF424EH   000163H   BYTE   UNIT     HCONST         ?C_INITEDATA
FF424FH   FF42CCH   00007EH   BYTE   UNIT     HCONST         ?HC?LCDAPP
FF42CDH   FF42EDH   000021H   BYTE   UNIT     HCONST         ?HC?LCD
FF42EEH   FF42FBH   00000EH   BYTE   UNIT     HCONST         ?HC?MAIN
FF42FCH   FF4303H   000008H   BYTE   UNIT     HCONST         ?HC?MODBUS
FF4304H   FF4309H   000006H   BYTE   UNIT     HCONST         ?HC?MODBUSDEV
FF430AH   FF430FH   000006H   BYTE   UNIT     HCONST         ?HC?MODBUSHOST

* * * * * * * * *   R E M O V E D     S E G M E N T S   * * * * * * * *
   *DEL*:           00003DH   BYTE   INSEG    CODE           ?PR?SENSORINIT?MAIN
   *DEL*:           000006H   BYTE   INSEG    CODE           ?PR?POWEROFF?MAIN
   *DEL*:           000043H   BYTE   INSEG    CODE           ?PR?GETINPUT?MAIN
   *DEL*:           000018H   BYTE   INSEG    CODE           ?PR?DELAY_MS?MAIN
   *DEL*:           000040H   BYTE   INSEG    CODE           ?PR?UART1SEND?UART
   *DEL*:           000011H   BYTE   INSEG    CODE           ?PR?PUTCHAR?UART
   *DEL*:           000048H   BYTE   INSEG    CODE           ?PR?SETCHCOUNT?LCDAPP
   *DEL*:           000038H   BYTE   INSEG    CODE           ?PR?VALIDTCPFRAME?MODBUS
   *DEL*:           00006DH   BYTE   INSEG    CODE           ?PR?SWENDIAN?MODBUS
   *DEL*:           000023H   BYTE   INSEG    CODE           ?PR?BYTESTODWORD?MODBUS
   *DEL*:           000038H   BYTE   INSEG    CODE           ?PR?BYTESTOFLOAT?MODBUS
   *DEL*:           000038H   BYTE   INSEG    CODE           ?PR?FLOATTOBYTES?MODBUS
   *DEL*:           000023H   BYTE   INSEG    CODE           ?PR?BYTESTOWORD?MODBUS
   *DEL*:           00002BH   BYTE   INSEG    CODE           ?PR?SWENDIANW?MODBUS
   *DEL*:           000051H   BYTE   INSEG    CODE           ?PR?BYTECONVERT?MODBUS
   *DEL*:           000031H   BYTE   INSEG    CODE           ?PR?PACKAGEDWORDVALUE?MODBUSDEV
L251 LINKER/LOCATER V4.66.93.0                                                        03/22/2024  16:36:51  PAGE 7


   *DEL*:           000042H   BYTE   INSEG    CODE           ?PR?PACKAGEFLOATVALUE?MODBUSDEV
   *DEL*:           000049H   BYTE   INSEG    CODE           ?PR?PACKAGEWORDVALUE?MODBUSDEV



OVERLAY MAP OF MODULE:   .\obj\PileCore (ISR)


FUNCTION/MODULE                  EDATA_GROUP
--> CALLED FUNCTION/MODULE       START  STOP
============================================
Timer0Int/main                   ----- -----

*** NEW ROOT *******************

UART1_int/uart                   ----- -----

*** NEW ROOT *******************

UART2_int/uart                   ----- -----

*** NEW ROOT *******************

UART3_int/uart                   ----- -----

*** NEW ROOT *******************

UART4_int/uart                   ----- -----

*** NEW ROOT *******************

?C_C51STARTUP                    ----- -----

*** NEW ROOT *******************

?C_C51STARTUP?3                  ----- -----
  +--> main/main

main/main                        ----- -----
  +--> SysInit/main
  +--> IoInit/main
  +--> LedInit/main
  +--> Delay/main
  +--> Timer0Init/main
  +--> Adc_Init/Temper
  +--> UART1_config/uart
  +--> UART2_config/uart
  +--> UART3_config/uart
  +--> UART4_config/uart
  +--> ClearUart1Buf/uart
  +--> ClearUart2Buf/uart
  +--> ClearUart3Buf/uart
  +--> ClearUart4Buf/uart
  +--> ReadParam/main
  +--> SyncModBusDev/main
  +--> InitLcd/main
  +--> TimerTask/main
  +--> HndInput/main
  +--> Uart1Hnd/uart
  +--> Uart2Hnd/uart
  +--> Uart3Hnd/uart
  +--> FlowTask/main
  +--> Uart4Hnd/uart
  +--> RemCtlTask/main

L251 LINKER/LOCATER V4.66.93.0                                                        03/22/2024  16:36:51  PAGE 8


SysInit/main                     ----- -----

IoInit/main                      ----- -----

LedInit/main                     ----- -----
  +--> CloseValve/main

CloseValve/main                  ----- -----

Delay/main                       ----- -----

Timer0Init/main                  ----- -----

Adc_Init/Temper                  ----- -----

UART1_config/uart                ----- -----

UART2_config/uart                ----- -----

UART3_config/uart                ----- -----

UART4_config/uart                ----- -----

ClearUart1Buf/uart               ----- -----
  +--> memset?_/memset

memset?_/memset                  ----- -----

ClearUart2Buf/uart               ----- -----
  +--> memset?_/memset

ClearUart3Buf/uart               ----- -----
  +--> memset?_/memset

ClearUart4Buf/uart               ----- -----
  +--> memset?_/memset

ReadParam/main                   ----- -----
  +--> EEPROM_read/EepRom
  +--> ParamCheck/main
  +--> ParamDef/main
  +--> WriteParam/main

EEPROM_read/EepRom               ----- -----
  +--> EEPROM_Trig/EepRom
  +--> DisableEEPROM/EepRom

EEPROM_Trig/EepRom               ----- -----

DisableEEPROM/EepRom             ----- -----

ParamCheck/main                  ----- -----

ParamDef/main                    ----- -----

WriteParam/main                  ----- -----
  +--> EEPROM_SectorErase/EepRom
  +--> ParamCheck/main
  +--> EEPROM_write/EepRom
  +--> Error/main

EEPROM_SectorErase/EepRom        ----- -----
  +--> EEPROM_Trig/EepRom
  +--> DisableEEPROM/EepRom

L251 LINKER/LOCATER V4.66.93.0                                                        03/22/2024  16:36:51  PAGE 9


EEPROM_write/EepRom              ----- -----
  +--> EEPROM_Trig/EepRom
  +--> DisableEEPROM/EepRom

Error/main                       ----- -----
  +--> Delay/main

SyncModBusDev/main               ----- -----
  +--> memset?_/memset
  +--> GetAlarm/main

GetAlarm/main                    ----- -----

InitLcd/main                     ----- -----
  +--> memset?_/memset
  +--> ModeHint/LcdApp
  +--> Delay/main
  +--> HideModule/Lcd
  +--> UpdataUI/main
  +--> SendParam/LcdApp
  +--> SetBkLight/Lcd
  +--> ShowDevInfo/LcdApp

ModeHint/LcdApp                  ----- -----
  +--> memset?_/memset
  +--> SPRINTF/SPRINTF
  +--> LcdCmd/Lcd

SPRINTF/SPRINTF                  023FH 0266H
  +--> OUT/SPRINTF

OUT/SPRINTF                      ----- -----
  +--> PUTCH/SPRINTF

PUTCH/SPRINTF                    ----- -----

LcdCmd/Lcd                       ----- -----
  +--> memset?_/memset
  +--> SwWord/Lcd
  +--> memcpy?_/memcpy
  +--> DebugMsg/main
  +--> Uart2Send/uart

SwWord/Lcd                       ----- -----

memcpy?_/memcpy                  ----- -----

DebugMsg/main                    ----- -----
  +--> strlen?_/STRLEN

strlen?_/STRLEN                  ----- -----

Uart2Send/uart                   ----- -----

HideModule/Lcd                   ----- -----
  +--> LcdCmd/Lcd

UpdataUI/main                    ----- -----
  +--> ShowStatus/LcdApp
  +--> Delay/main
  +--> StatusColor/LcdApp

ShowStatus/LcdApp                ----- -----
  +--> memset?_/memset
  +--> SPRINTF/SPRINTF
L251 LINKER/LOCATER V4.66.93.0                                                        03/22/2024  16:36:51  PAGE 10


  +--> LcdCmd/Lcd

StatusColor/LcdApp               ----- -----
  +--> Delay/main
  +--> SwWord/Lcd
  +--> SetTextColor/Lcd

SetTextColor/Lcd                 ----- -----
  +--> LcdCmd/Lcd

SendParam/LcdApp                 ----- -----
  +--> SwWord/Lcd
  +--> memset?_/memset
  +--> SPRINTF/SPRINTF
  +--> LcdCmd/Lcd

SetBkLight/Lcd                   ----- -----
  +--> PopWord/Lcd
  +--> LcdCmd/Lcd

PopWord/Lcd                      ----- -----
  +--> memcpy?_/memcpy
  +--> SwWord/Lcd

ShowDevInfo/LcdApp               ----- -----
  +--> memset?_/memset
  +--> SPRINTF/SPRINTF
  +--> LcdCmd/Lcd

TimerTask/main                   ----- -----
  +--> Task1s/main
  +--> RunLed/main
  +--> IoCtlTask/main
  +--> GetValve/main
  +--> ShowRemCh/LcdApp

Task1s/main                      ----- -----
  +--> ADC_Temp/Temper
  +--> GetRetCode/LcdApp
  +--> DevRun/main

ADC_Temp/Temper                  ----- -----
  +--> Get_ADC12bitResult/Temper
  +--> Get_Temperature/Temper

Get_ADC12bitResult/Temper        ----- -----

Get_Temperature/Temper           ----- -----

GetRetCode/LcdApp                ----- -----
  +--> LcdCmd/Lcd

DevRun/main                      ----- -----
  +--> GetFlow/main
  +--> ShowFlow/LcdApp
  +--> CheckAlarm/main
  +--> RunCheck/main

GetFlow/main                     ----- -----
  +--> SwWord/Lcd
  +--> SwDWord/Lcd

SwDWord/Lcd                      ----- -----

ShowFlow/LcdApp                  ----- -----
L251 LINKER/LOCATER V4.66.93.0                                                        03/22/2024  16:36:51  PAGE 11


  +--> SetRunTime/LcdApp
  +--> LcdCmd/Lcd

SetRunTime/LcdApp                ----- -----
  +--> ?C?ULIDIV/?C?ULDIV
  +--> memset?_/memset
  +--> SPRINTF/SPRINTF

?C?ULIDIV/?C?ULDIV               ----- -----

CheckAlarm/main                  ----- -----
  +--> memcmp?_/memcmp
  +--> Delay/main
  +--> ShowStatus/LcdApp
  +--> AbnorAlaerm/main
  +--> StatusColor/LcdApp
  +--> memcpy?_/memcpy

memcmp?_/memcmp                  ----- -----

AbnorAlaerm/main                 ----- -----

RunCheck/main                    ----- -----
  +--> TimingMode/main
  +--> VolumeMode/main

TimingMode/main                  ----- -----
  +--> StopSamp/main

StopSamp/main                    ----- -----
  +--> ClosePump/main
  +--> memset?_/memset
  +--> SetStartBtn/LcdApp
  +--> ShowModule/Lcd

ClosePump/main                   ----- -----

SetStartBtn/LcdApp               ----- -----
  +--> LcdCmd/Lcd

ShowModule/Lcd                   ----- -----
  +--> SwWord/Lcd
  +--> LcdCmd/Lcd

VolumeMode/main                  ----- -----
  +--> StopSamp/main

RunLed/main                      ----- -----

IoCtlTask/main                   ----- -----
  +--> OutFlash/main
  +--> OutCtl/main

OutFlash/main                    ----- -----
  +--> OutCtl/main

OutCtl/main                      ----- -----

GetValve/main                    ----- -----
  +--> CheckValve/main

CheckValve/main                  ----- -----

ShowRemCh/LcdApp                 ----- -----
  +--> LcdCmd/Lcd
L251 LINKER/LOCATER V4.66.93.0                                                        03/22/2024  16:36:51  PAGE 12



HndInput/main                    ----- -----
  +--> Delay/main
  +--> StopSamp/main
  +--> ShowEmStop/LcdApp

ShowEmStop/LcdApp                ----- -----
  +--> LcdCmd/Lcd

Uart1Hnd/uart                    ----- -----
  +--> ClearUart1Buf/uart

Uart2Hnd/uart                    ----- -----
  +--> DumpCmd/main
  +--> memcpy?_/memcpy
  +--> ClearUart2Buf/uart
  +--> HndLcdData/Lcd

DumpCmd/main                     ----- -----
  +--> memset?_/memset
  +--> strlen?_/STRLEN
  +--> SPRINTF/SPRINTF
  +--> DebugMsg/main

HndLcdData/Lcd                   ----- -----
  +--> HndLcdFrame/Lcd
  +--> ValidLcdFrame/Lcd
  +--> ClearRevBuf/Lcd

HndLcdFrame/Lcd                  ----- -----
  +--> ReadReg/LcdApp
  +--> WriteReg/LcdApp

ReadReg/LcdApp                   ----- -----
  +--> SwWord/Lcd
  +--> DebugInt/main
  +--> StartButton/LcdApp
  +--> VerifyPassWord/LcdApp
  +--> SampCtl/LcdApp
  +--> ReturnStart/LcdApp
  +--> GetLcdTime/Lcd
  +--> HideModule/Lcd
  +--> PopWord/Lcd
  +--> SetBkLight/Lcd
  +--> SetSampMode/LcdApp
  +--> ModeHint/LcdApp
  +--> UpdataUI/main
  +--> SaveParam/main
  +--> ShowDevInfo/LcdApp
  +--> GetInputTime/LcdApp
  +--> SetLcdTime/Lcd
  +--> SetCurTime/LcdApp
  +--> ShowTemp/LcdApp

DebugInt/main                    ----- -----
  +--> memset?_/memset
  +--> SPRINTF/SPRINTF
  +--> DebugMsg/main

StartButton/LcdApp               ----- -----
  +--> CheckDataLen/Lcd
  +--> PopWord/Lcd
  +--> StartSamp/main

CheckDataLen/Lcd                 ----- -----
L251 LINKER/LOCATER V4.66.93.0                                                        03/22/2024  16:36:51  PAGE 13



StartSamp/main                   ----- -----
  +--> memset?_/memset
  +--> OpenPump/main
  +--> memcpy?_/memcpy
  +--> ShowStatus/LcdApp
  +--> StatusColor/LcdApp
  +--> SetStartBtn/LcdApp

OpenPump/main                    ----- -----

VerifyPassWord/LcdApp            ----- -----
  +--> CheckDataLen/Lcd
  +--> PopWord/Lcd
  +--> EnterPage/Lcd

EnterPage/Lcd                    ----- -----
  +--> memcpy?_/memcpy
  +--> LcdCmd/Lcd

SampCtl/LcdApp                   ----- -----
  +--> CheckDataLen/Lcd
  +--> PopWord/Lcd
  +--> StartSamp/main
  +--> StopSamp/main
  +--> HideModule/Lcd

ReturnStart/LcdApp               ----- -----
  +--> CheckDataLen/Lcd
  +--> PopWord/Lcd
  +--> StopSamp/main
  +--> Delay/main
  +--> memset?_/memset
  +--> LcdCmd/Lcd
  +--> EnterPage/Lcd
  +--> StartSamp/main

GetLcdTime/Lcd                   ----- -----
  +--> DebugMsg/main
  +--> LcdCmd/Lcd

SetSampMode/LcdApp               ----- -----
  +--> PopWord/Lcd
  +--> memset?_/memset
  +--> SPRINTF/SPRINTF
  +--> LcdCmd/Lcd

SaveParam/main                   ----- -----
  +--> WriteParam/main

GetInputTime/LcdApp              ----- -----
  +--> LcdCmd/Lcd

SetLcdTime/Lcd                   ----- -----
  +--> CheckDataLen/Lcd
  +--> PopWord/Lcd
  +--> LcdCmd/Lcd

SetCurTime/LcdApp                ----- -----
  +--> CheckDataLen/Lcd
  +--> memcpy?_/memcpy
  +--> SwWord/Lcd
  +--> LcdCmd/Lcd

ShowTemp/LcdApp                  ----- -----
L251 LINKER/LOCATER V4.66.93.0                                                        03/22/2024  16:36:51  PAGE 14


  +--> LcdCmd/Lcd

WriteReg/LcdApp                  ----- -----

ValidLcdFrame/Lcd                ----- -----
  +--> SwWord/Lcd

ClearRevBuf/Lcd                  ----- -----
  +--> memset?_/memset

Uart3Hnd/uart                    ----- -----
  +--> FlowMeterAck/FlowMeter
  +--> ClearUart3Buf/uart

FlowMeterAck/FlowMeter           ----- -----
  +--> ValidRtuFrame/ModBus
  +--> memset?_/memset
  +--> memcpy?_/memcpy
  +--> ReadFlow/FlowMeter

ValidRtuFrame/ModBus             ----- -----
  +--> CRC16Calc/ModBus

CRC16Calc/ModBus                 ----- -----

ReadFlow/FlowMeter               ----- -----
  +--> PopReg/ModBusHost

PopReg/ModBusHost                ----- -----
  +--> memcpy?_/memcpy
  +--> RegSw/ModBus

RegSw/ModBus                     ----- -----

FlowTask/main                    ----- -----
  +--> SendReadFlowCmd/main

SendReadFlowCmd/main             ----- -----
  +--> SendReadFlow/FlowMeter

SendReadFlow/FlowMeter           ----- -----
  +--> HostSendCmd/ModBusHost

HostSendCmd/ModBusHost           ----- -----
  +--> memset?_/memset
  +--> RegSw/ModBus
  +--> memcpy?_/memcpy
  +--> CRC16Calc/ModBus
  +--> SendBuffer/ModBusHost

SendBuffer/ModBusHost            ----- -----
  +--> SendTcpFrame/ModBusHost
  +--> Uart3Send/uart

SendTcpFrame/ModBusHost          ----- -----
  +--> memcpy?_/memcpy

Uart3Send/uart                   ----- -----

Uart4Hnd/uart                    ----- -----
  +--> HndModBusRecv/ModBusDev
  +--> ClearUart4Buf/uart

HndModBusRecv/ModBusDev          ----- -----
  +--> ValidRtuFrame/ModBus
L251 LINKER/LOCATER V4.66.93.0                                                        03/22/2024  16:36:51  PAGE 15


  +--> memset?_/memset
  +--> memcpy?_/memcpy
  +--> ReadAck/ModBusDev
  +--> SetRegValue/ModBusDev

ReadAck/ModBusDev                ----- -----
  +--> memset?_/memset
  +--> PackageReg/ModBusDev
  +--> CRC16Calc/ModBus
  +--> Uart4Send/uart

PackageReg/ModBusDev             ----- -----
  +--> SyncModBusDev/main
  +--> memcpy?_/memcpy

Uart4Send/uart                   ----- -----

SetRegValue/ModBusDev            ----- -----
  +--> WriteRegValue/ModBusDev
  +--> WriteAck/ModBusDev

WriteRegValue/ModBusDev          ----- -----
  +--> memcpy?_/memcpy
  +--> ModBusSaveParam/ModBusDev

ModBusSaveParam/ModBusDev        ----- -----
  +--> WriteParam/main

WriteAck/ModBusDev               ----- -----
  +--> memset?_/memset
  +--> RegSw/ModBus
  +--> CRC16Calc/ModBus
  +--> Uart4Send/uart

RemCtlTask/main                  ----- -----
  +--> RemPageCtl/main

RemPageCtl/main                  ----- -----
  +--> EnterPage/Lcd
  +--> StartSamp/main
  +--> memset?_/memset
  +--> StopSamp/main
  +--> SendParam/LcdApp
  +--> ModeHint/LcdApp
  +--> ClosePump/main

*** NEW ROOT *******************

?C_C51STARTUP?2                  ----- -----



PUBLIC SYMBOLS OF MODULE:  .\obj\PileCore (ISR)


      VALUE       CLASS    TYPE      PUBLIC SYMBOL NAME
      =================================================
      00FF0A7BH   CODE     ---       ?C?BMOVENP
      00FF0A79H   CODE     ---       ?C?BMOVENP8
      00FF039AH   CODE     NEAR LAB  ?C?CASTF
      000000FFH   NUMBER   ---       ?C?CODESEG
      00FF0367H   CODE     NEAR LAB  ?C?FCASTC
      00FF0362H   CODE     NEAR LAB  ?C?FCASTI
      00FF035DH   CODE     NEAR LAB  ?C?FCASTL
      00FF013EH   CODE     ---       ?C?FPADD
L251 LINKER/LOCATER V4.66.93.0                                                        03/22/2024  16:36:51  PAGE 16


      00FF0319H   CODE     ---       ?C?FPCMP
      00FF0317H   CODE     ---       ?C?FPCMP3
      00FF0892H   CODE     ---       ?C?FPCONVERT
      00FF0296H   CODE     ---       ?C?FPDIV
      00FF03F7H   CODE     ---       ?C?FPGETOPN2
      00FF01F6H   CODE     ---       ?C?FPMUL
      00FF0434H   CODE     ---       ?C?FPNANRESULT
      00FF043CH   CODE     ---       ?C?FPOVERFLOW
      00FF0410H   CODE     ---       ?C?FPRESULT
      00FF0426H   CODE     ---       ?C?FPRESULT2
      00FF094AH   CODE     ---       ?C?FPROUND
      00FF013BH   CODE     ---       ?C?FPSUB
      00FF0439H   CODE     ---       ?C?FPUNDERFLOW
      00FF09BDH   CODE     ---       ?C?FTNPWR
      00FF2B7DH   CODE     ---       ?C?INITEDATA
      00FF424DH   HCONST   WORD      ?C?INITEDATA_END
      00FF2BA6H   CODE     ---       ?C?INITHDATA
      00FF40EAH   HCONST   WORD      ?C?INITHDATA_END
      00FF0475H   CODE     ---       ?C?PRNFMT
      00FF09F4H   CODE     ---       ?C?SIDIV
      00FF0000H   CODE     ---       ?C?STARTUP
      00FF0A28H   CODE     NEAR LAB  ?C?ULDIV
      00FF0A26H   CODE     NEAR LAB  ?C?ULIDIV
      00000001H   NUMBER   ---       ?C?XDATASEG
      00FF0000H   CODE     ---       ?C_STARTUP
      0000031BH   EDATA    BYTE      ?EEPROM_read?BYTE
      00000295H   EDATA    BYTE      ?EEPROM_write?BYTE
      000002B8H   EDATA    BYTE      ?HostSendCmd?BYTE
      00000267H   EDATA    ---       ?sprintf?BYTE
      00FF2718H   CODE     ---       AbnorAlaerm
*SFR* 000000BCH   DATA     BYTE      ADC_CONTR
*SFR* 000000BCH.5 DATA     BIT       ADC_FLAG
      00FF3CE1H   CODE     ---       Adc_Init
*SFR* 000000BDH   DATA     BYTE      ADC_RES
*SFR* 000000BEH   DATA     BYTE      ADC_RESL
      00FF2F8FH   CODE     ---       ADC_Temp
*SFR* 000000DEH   DATA     BYTE      ADCCFG
*SFR* 000000EFH   DATA     BYTE      AUXINTIF
*SFR* 0000008EH   DATA     BYTE      AUXR
*SFR* 00000097H   DATA     BYTE      AUXR2
      00000020H.0 BIT      BIT       B_TX1_Busy
      00000020H.1 BIT      BIT       B_TX2_Busy
      00000020H.2 BIT      BIT       B_TX3_Busy
      00000020H.3 BIT      BIT       B_TX4_Busy
*DEL*:00000000H   CODE     ---       ByteConvert
*DEL*:00000000H   CODE     ---       BytesToDWord
*DEL*:00000000H   CODE     ---       BytesToFloat
*DEL*:00000000H   CODE     ---       BytesToWord
*SFR* 000000F1H   DATA     BYTE      CANICR
      000002AFH   EDATA    ---       ChannelAlarm
      000001E9H   EDATA    ---       ChannelError
      00010566H   XDATA    ---       ChannelStatus
      00FF0A9EH   CODE     ---       CheckAlarm
      00FF392DH   CODE     ---       CheckDataLen
      00FF1AF5H   CODE     ---       CheckValve
      00000204H   EDATA    BYTE      ChNum
      00FF0026H   CODE     ---       ClearRevBuf
      00FF3D92H   CODE     ---       ClearUart1Buf
      00FF3D3DH   CODE     ---       ClearUart2Buf
      00FF3D53H   CODE     ---       ClearUart3Buf
      00FF3DA4H   CODE     ---       ClearUart4Buf
      00FF3DD0H   CODE     ---       ClosePump
      00FF3C7FH   CODE     ---       CloseValve
*SFR* 000000C1H.4 DATA     BIT       CLR_WDT
*SFR* 000000E6H   DATA     BYTE      CMPCR1
L251 LINKER/LOCATER V4.66.93.0                                                        03/22/2024  16:36:51  PAGE 17


*SFR* 000000E7H   DATA     BYTE      CMPCR2
      00FF2147H   CODE     ---       CRC16Calc
      0000041EH   EDATA    BYTE      DataIndex
      00FF36B3H   CODE     ---       DebugInt
      00FF3DC4H   CODE     ---       DebugMsg
      00FF33D2H   CODE     ---       Delay
*DEL*:00000000H   CODE     ---       delay_ms
      000001C1H   EDATA    WORD      DelayCount
      000001D0H   EDATA    BYTE      Delayflag
      0001048EH   XDATA    ---       DevInfo
      00010108H   XDATA    ---       DevReadAck
      00FF37CFH   CODE     ---       DevRun
      0001020DH   XDATA    ---       DevWriteAck
      00FF3D27H   CODE     ---       DisableEEPROM
      00FF241BH   CODE     ---       DumpCmd
*SFR* 000000A8H.7 DATA     BIT       EA
*SFR* 000000BAH.7 DATA     BIT       EAXFR
      00FF2BDAH   CODE     ---       EEPROM_read
      00FF3900H   CODE     ---       EEPROM_SectorErase
      00FF3CC9H   CODE     ---       EEPROM_Trig
      00FF19E0H   CODE     ---       EEPROM_write
      00FF3531H   CODE     ---       EnterPage
      00FF3CF9H   CODE     ---       Error
*SFR* 000000A8H.4 DATA     BIT       ES
*SFR* 000000AFH.0 DATA     BIT       ES2
*SFR* 000000AFH.3 DATA     BIT       ES3
*SFR* 000000AFH.4 DATA     BIT       ES4
*SFR* 000000A8H.1 DATA     BIT       ET0
*SFR* 000000A8H.3 DATA     BIT       ET1
*SFR* 000000AFH.2 DATA     BIT       ET2
*SFR* 000000D0H.5 DATA     BIT       F0
*DEL*:00000000H   CODE     ---       FloatToBytes
      00FF303AH   CODE     ---       FlowMeterAck
      00FF3728H   CODE     ---       FlowTask
      000001DCH   EDATA    BYTE      g_Key_Confrom
      0000020EH   EDATA    BYTE      g_Key_Input
      0000020DH   EDATA    BYTE      g_Key_Power
      000001F7H   EDATA    ---       g_Output
      000001C3H   EDATA    ---       g_OutStatus
      00FF3576H   CODE     ---       Get_ADC12bitResult
      00FF268CH   CODE     ---       Get_Temperature
      00FF2C46H   CODE     ---       GetAlarm
      00FF10B2H   CODE     ---       GetFlow
*DEL*:00000000H   CODE     ---       GetInput
      00FF3B87H   CODE     ---       GetInputTime
      00FF395AH   CODE     ---       GetLcdTime
      00FF3BEDH   CODE     ---       GetRetCode
      00FF1D0FH   CODE     ---       GetValve
      000001DDH   EDATA    WORD      gRunTime
      00FF3AD0H   CODE     ---       HideModule
      000002A7H   EDATA    ---       HisAlarm
      00FF2E2DH   CODE     ---       HndInput
      00FF3D10H   CODE     ---       HndLcdData
      00FF3343H   CODE     ---       HndLcdFrame
      00FF2DD2H   CODE     ---       HndModBusRecv
      00000418H   EDATA    WORD      HostBufIndex
      00FF1675H   CODE     ---       HostSendCmd
      00010251H   XDATA    ---       HostSendFrame
*SFR* 000000F6H   DATA     BYTE      IAP_ADDRE
*SFR* 000000C3H   DATA     BYTE      IAP_ADDRH
*SFR* 000000C4H   DATA     BYTE      IAP_ADDRL
*SFR* 000000C5H   DATA     BYTE      IAP_CMD
*SFR* 000000C7H   DATA     BYTE      IAP_CONTR
*SFR* 000000C2H   DATA     BYTE      IAP_DATA
*SFR* 000000F5H   DATA     BYTE      IAP_TPS
L251 LINKER/LOCATER V4.66.93.0                                                        03/22/2024  16:36:51  PAGE 18


*SFR* 000000C6H   DATA     BYTE      IAP_TRIG
*SFR* 000000A8H   DATA     BYTE      IE
*SFR* 000000AFH   DATA     BYTE      IE2
      00FF2AF8H   CODE     ---       InitLcd
      00000213H   EDATA    BYTE      Input_Status
*SFR* 0000008FH   DATA     BYTE      INTCLKO
      00FF308FH   CODE     ---       IoCtlTask
      00FF36EEH   CODE     ---       IoInit
*SFR* 000000B8H   DATA     BYTE      IP
*SFR* 000000B5H   DATA     BYTE      IP2
*SFR* 000000B6H   DATA     BYTE      IP2H
*SFR* 000000DFH   DATA     BYTE      IP3
*SFR* 000000EEH   DATA     BYTE      IP3H
*SFR* 000000B7H   DATA     BYTE      IPH
*SFR* 0000009DH   DATA     BYTE      IRCBAND
      000001E0H   EDATA    BYTE      LcdBusyFlag
      0000020FH   EDATA    WORD      LcdBusyTim
      00FF22B8H   CODE     ---       LcdCmd
      0000041DH   EDATA    BYTE      LcdFrameloc
      00FF3D7FH   CODE     ---       LedInit
*SFR* 000000F9H   DATA     BYTE      LINICR
      00FF0096H   CODE     ---       main
      0000041AH   EDATA    ---       MbId
      00FF38D1H   CODE     ---       memcmp?_
      00FF3B1BH   CODE     ---       memcpy?_
      00FF3C65H   CODE     ---       memset?_
      00010243H   XDATA    ---       ModBusInfo
      00010215H   XDATA    ---       ModBusParam
      00FF389EH   CODE     ---       ModBusSaveParam
      0001022FH   XDATA    ---       ModBusStatus
      00FF27A1H   CODE     ---       ModeHint
      00FF2E97H   CODE     ---       ModeText
      000002B7H   EDATA    BYTE      NeedGetRet
      00FF0003H   CODE     ---       OpenPump
      00FF13C1H   CODE     ---       OutCtl
      00FF2D71H   CODE     ---       OutFlash
*SFR* 00000080H   DATA     BYTE      P0
*SFR* 00000094H   DATA     BYTE      P0M0
*SFR* 00000093H   DATA     BYTE      P0M1
*SFR* 00000090H   DATA     BYTE      P1
*SFR* 00000092H   DATA     BYTE      P1M0
*SFR* 00000091H   DATA     BYTE      P1M1
*SFR* 000000A0H   DATA     BYTE      P2
*SFR* 00000096H   DATA     BYTE      P2M0
*SFR* 00000095H   DATA     BYTE      P2M1
*SFR* 000000B0H   DATA     BYTE      P3
*SFR* 000000B2H   DATA     BYTE      P3M0
*SFR* 000000B1H   DATA     BYTE      P3M1
*SFR* 000000C0H   DATA     BYTE      P4
*SFR* 000000B4H   DATA     BYTE      P4M0
*SFR* 000000B3H   DATA     BYTE      P4M1
*SFR* 000000C8H   DATA     BYTE      P5
*SFR* 000000CAH   DATA     BYTE      P5M0
*SFR* 000000C9H   DATA     BYTE      P5M1
*SFR* 000000E8H   DATA     BYTE      P6
*SFR* 000000CCH   DATA     BYTE      P6M0
*SFR* 000000CBH   DATA     BYTE      P6M1
*SFR* 000000F8H   DATA     BYTE      P7
*SFR* 000000E2H   DATA     BYTE      P7M0
*SFR* 000000E1H   DATA     BYTE      P7M1
*SFR* 000000A2H   DATA     BYTE      P_SW1
*SFR* 000000BAH   DATA     BYTE      P_SW2
*SFR* 000000BBH   DATA     BYTE      P_SW3
*DEL*:00000000H   CODE     ---       PackageDWordValue
*DEL*:00000000H   CODE     ---       PackageFloatValue
L251 LINKER/LOCATER V4.66.93.0                                                        03/22/2024  16:36:51  PAGE 19


      00FF2928H   CODE     ---       PackageReg
*DEL*:00000000H   CODE     ---       PackageWordValue
      00000212H   EDATA    BYTE      PageSwitch
      00FF3217H   CODE     ---       ParamCheck
      00FF25FEH   CODE     ---       ParamDef
*SFR* 00000087H   DATA     BYTE      PCON
      00FF3676H   CODE     ---       PopReg
      00FF2FE5H   CODE     ---       PopWord
*DEL*:00000000H   CODE     ---       PowerOff
*SFR* 000000B8H.4 DATA     BIT       PS
*SFR* 000000B5H.0 DATA     BIT       PS2
*SFR* 000000B6H.0 DATA     BIT       PS2H
*SFR* 000000DFH.0 DATA     BIT       PS3
*SFR* 000000EEH.0 DATA     BIT       PS3H
*SFR* 000000DFH.1 DATA     BIT       PS4
*SFR* 000000EEH.1 DATA     BIT       PS4H
*SFR* 000000B7H.4 DATA     BIT       PSH
*SFR* 000000D0H   DATA     BYTE      PSW
*SFR* 000000B8H.1 DATA     BIT       PT0
*SFR* 000000B7H.1 DATA     BIT       PT0H
*DEL*:00000000H   CODE     ---       putchar
      00FF1FB0H   CODE     ---       ReadAck
      00010359H   XDATA    ---       ReadAckFrame
      00FF1ED6H   CODE     ---       ReadFlow
      00FF34ECH   CODE     ---       ReadParam
      00FF0DAFH   CODE     ---       ReadReg
      000109E6H   XDATA    ---       RealFlow
      0000041CH   EDATA    BYTE      RecLength1
      0001084EH   XDATA    ---       RecvBuf1
      00010000H   XDATA    ---       RecvFrame
      00FF3DDBH   CODE     ---       RegSw
      00000211H   EDATA    BYTE      RemAckOut
      000001E1H   EDATA    WORD      RemAckTimout
      00000205H   EDATA    ---       Remchenable
      000001D1H   EDATA    ---       Remchflag
      000105E6H   XDATA    ---       RemChStatus
      000001E3H   EDATA    WORD      Remchtim
      00FF3DE4H   CODE     ---       RemCtlTask
      000001DBH   EDATA    BYTE      RemPage
      00FF124DH   CODE     ---       RemPageCtl
      0001099EH   XDATA    ---       RemRegAddr
      000109A4H   XDATA    ---       RemRunStatus
      000001DFH   EDATA    BYTE      RemStart
      000001F2H   EDATA    BYTE      RemStop
*SFR* 00000098H.4 DATA     BIT       REN
      00FF2201H   CODE     ---       ReturnStart
*SFR* 00000098H.0 DATA     BIT       RI
*SFR* 000000FFH   DATA     BYTE      RSTCFG
      00FF000EH   CODE     ---       RunCheck
      0001052EH   XDATA    ---       RunInfo
      00FF338BH   CODE     ---       RunLed
      00010951H   XDATA    ---       RunStatus
      00000021H   EDATA    ---       RX1_Buffer
      000001B7H   EDATA    BYTE      RX1_Cnt
      000001B1H   EDATA    WORD      Rx1_Timer
      000105F6H   XDATA    ---       RX2_Buffer
      000001BAH   EDATA    BYTE      RX2_Cnt
      000001B3H   EDATA    WORD      Rx2_Timer
      000106BEH   XDATA    ---       RX3_Buffer
      000001BBH   EDATA    BYTE      RX3_Cnt
      000001B5H   EDATA    WORD      Rx3_Timer
      000000E9H   EDATA    ---       RX4_Buffer
      000001BDH   EDATA    BYTE      RX4_Cnt
      000001B8H   EDATA    WORD      Rx4_Timer
*SFR* 0000009BH   DATA     BYTE      S2BUF
L251 LINKER/LOCATER V4.66.93.0                                                        03/22/2024  16:36:51  PAGE 20


*SFR* 0000009AH   DATA     BYTE      S2CON
*SFR* 0000009AH.4 DATA     BIT       S2REN
*SFR* 0000009AH.0 DATA     BIT       S2RI
*SFR* 0000009AH.1 DATA     BIT       S2TI
*SFR* 000000ADH   DATA     BYTE      S3BUF
*SFR* 000000ACH   DATA     BYTE      S3CON
*SFR* 000000ACH.4 DATA     BIT       S3REN
*SFR* 000000ACH.0 DATA     BIT       S3RI
*SFR* 000000ACH.1 DATA     BIT       S3TI
*SFR* 000000FEH   DATA     BYTE      S4BUF
*SFR* 000000FDH   DATA     BYTE      S4CON
*SFR* 000000FDH.4 DATA     BIT       S4REN
*SFR* 000000FDH.0 DATA     BIT       S4RI
*SFR* 000000FDH.1 DATA     BIT       S4TI
      00FF3987H   CODE     ---       SampCtl
      00FF3DE0H   CODE     ---       SaveParam
*SFR* 00000099H   DATA     BYTE      SBUF
*SFR* 00000098H   DATA     BYTE      SCON
      00010786H   XDATA    ---       SendBuf1
      00FF39DFH   CODE     ---       SendBuffer
      000001DAH   EDATA    BYTE      SendFlowFlag
      000001F3H   EDATA    WORD      SendFlowTim
      00FF17A9H   CODE     ---       SendParam
      00FF3AA9H   CODE     ---       SendReadFlow
      00FF3B64H   CODE     ---       SendReadFlowCmd
      00FF35FAH   CODE     ---       SendTcpFrame
*DEL*:00000000H   CODE     ---       SensorInit
      00FF3263H   CODE     ---       SetBkLight
*DEL*:00000000H   CODE     ---       SetChCount
      00FF2084H   CODE     ---       SetCurTime
      00FF236DH   CODE     ---       SetLcdTime
      00FF3BCCH   CODE     ---       SetRegValue
      00FF28B0H   CODE     ---       SetRunTime
      00FF31CAH   CODE     ---       SetSampMode
      00FF39B3H   CODE     ---       SetStartBtn
      00FF3C0DH   CODE     ---       SetTextColor
      00FF1DF8H   CODE     ---       ShowDevInfo
      00FF3C2CH   CODE     ---       ShowEmStop
      00FF3BAAH   CODE     ---       ShowFlow
      00FF3B40H   CODE     ---       ShowModule
      0001045EH   XDATA    ---       ShowParam
      00FF3C4BH   CODE     ---       ShowRemCh
      00FF1C05H   CODE     ---       ShowStatus
      00FF3C98H   CODE     ---       ShowTemp
      000001E5H   EDATA    FLOAT     SimFlow
*SFR* 000000CEH   DATA     BYTE      SPCTL
      00FF03D7H   CODE     NEAR LAB  sprintf
*SFR* 000000CDH   DATA     BYTE      SPSTAT
      00FF3A5BH   CODE     ---       StartButton
      00FF2A13H   CODE     ---       StartSamp
      00FF2567H   CODE     ---       StatusColor
      00FF2E87H   CODE     ---       StatusPoint
      00FF24C3H   CODE     ---       StopSamp
      00FF3DB6H   CODE     ---       strlen?_
      000109A6H   XDATA    ---       StrTmp
      00FF008EH   CODE     ---       SwDWord
*DEL*:00000000H   CODE     ---       SwEndian
*DEL*:00000000H   CODE     ---       SwEndianW
      00FF3DD6H   CODE     ---       SwWord
      00FF2A86H   CODE     ---       SyncModBusDev
      00FF3A33H   CODE     ---       SysInit
      00010916H   XDATA    ---       SysParam
*SFR* 000000D6H   DATA     BYTE      T2H
*SFR* 000000D7H   DATA     BYTE      T2L
*SFR* 0000008EH.4 DATA     BIT       T2R
L251 LINKER/LOCATER V4.66.93.0                                                        03/22/2024  16:36:51  PAGE 21


*SFR* 0000008EH.2 DATA     BIT       T2x12
*SFR* 000000D4H   DATA     BYTE      T3H
*SFR* 000000D5H   DATA     BYTE      T3L
*SFR* 000000DDH.3 DATA     BIT       T3R
*SFR* 000000D2H   DATA     BYTE      T4H
*SFR* 000000D3H   DATA     BYTE      T4L
*SFR* 000000DDH.7 DATA     BIT       T4R
*SFR* 000000DDH   DATA     BYTE      T4T3M
      00FF3130H   CODE     ---       Task1s
*SFR* 00000088H   DATA     BYTE      TCON
      00FF1533H   CODE     ---       temp_table
      000104AEH   XDATA    ---       TempBuf
      00000414H   EDATA    WORD      TEMPER
      00000416H   EDATA    WORD      TEMPER_Val
*SFR* 0000008CH   DATA     BYTE      TH0
*SFR* 0000008DH   DATA     BYTE      TH1
*SFR* 00000098H.1 DATA     BIT       TI
      000001F5H   EDATA    WORD      Timer0Cnt
      00FF3CB1H   CODE     ---       Timer0Init
      00FF3639H   CODE     ---       Timer0Int
      00FF18C9H   CODE     ---       TimerTask
      00FF3803H   CODE     ---       TimingMode
*SFR* 0000008AH   DATA     BYTE      TL0
*SFR* 0000008BH   DATA     BYTE      TL1
*SFR* 00000089H   DATA     BYTE      TMOD
*SFR* 00000088H.4 DATA     BIT       TR0
*SFR* 00000088H.6 DATA     BIT       TR1
      000001BCH   EDATA    BYTE      TX1_Cnt
      000001BEH   EDATA    BYTE      TX2_Cnt
      000001BFH   EDATA    BYTE      TX3_Cnt
      000001C0H   EDATA    BYTE      TX4_Cnt
      00FF2ED7H   CODE     ---       TxtColor
      00FF30E1H   CODE     ---       UART1_config
      00FF3419H   CODE     ---       UART1_int
      00FF3D69H   CODE     ---       Uart1Hnd
*DEL*:00000000H   CODE     ---       Uart1Send
      00FF32FAH   CODE     ---       UART2_config
      00FF2EE1H   CODE     ---       UART2_int
      00FF317DH   CODE     ---       Uart2Hnd
      00FF35BAH   CODE     ---       Uart2Send
      00FF379AH   CODE     ---       UART3_config
      00FF2F38H   CODE     ---       UART3_int
      00FF3AF6H   CODE     ---       Uart3Hnd
      00FF3460H   CODE     ---       Uart3Send
      00FF3837H   CODE     ---       UART4_config
      00FF32AFH   CODE     ---       UART4_int
      00FF3761H   CODE     ---       Uart4Hnd
      00FF34A6H   CODE     ---       Uart4Send
      00FF2D10H   CODE     ---       UpdataUI
*SFR* 000000F4H   DATA     BYTE      USBCON
      00FF2CACH   CODE     ---       ValidLcdFrame
      00FF3A82H   CODE     ---       ValidRtuFrame
*DEL*:00000000H   CODE     ---       ValidTcpFrame
      000001D9H   EDATA    BYTE      ValveIOFlag
      00FF3A0AH   CODE     ---       VerifyPassWord
      00FF000AH   CODE     BYTE      VERSION
      00FF386BH   CODE     ---       VolumeMode
*SFR* 000000C1H   DATA     BYTE      WDT_CONTR
      00FF282AH   CODE     ---       WriteAck
      00010249H   XDATA    ---       WriteAckFrame
      00FF0046H   CODE     ---       WriteParam
      00FF0022H   CODE     ---       WriteReg
      00FF299EH   CODE     ---       WriteRegValue
*SFR* 000000E9H   DATA     BYTE      WTST

L251 LINKER/LOCATER V4.66.93.0                                                        03/22/2024  16:36:51  PAGE 22




SYMBOL TABLE OF MODULE:  .\obj\PileCore (ISR)

      VALUE       REP       CLASS    TYPE      SYMBOL NAME
      ====================================================
      ---         MODULE    ---      ---       ISR

      ---         MODULE    ---      ---       main
      00FF2D10H   PUBLIC    CODE     ---       UpdataUI
      00FF0046H   PUBLIC    CODE     ---       WriteParam
      00FF386BH   PUBLIC    CODE     ---       VolumeMode
      00FF25FEH   PUBLIC    CODE     ---       ParamDef
      00FF3DE0H   PUBLIC    CODE     ---       SaveParam
      00FF3CF9H   PUBLIC    CODE     ---       Error
      00FF2A86H   PUBLIC    CODE     ---       SyncModBusDev
      00FF2C46H   PUBLIC    CODE     ---       GetAlarm
      00FF3DC4H   PUBLIC    CODE     ---       DebugMsg
      00FF36B3H   PUBLIC    CODE     ---       DebugInt
      00FF000EH   PUBLIC    CODE     ---       RunCheck
      00FF18C9H   PUBLIC    CODE     ---       TimerTask
      00FF3DD0H   PUBLIC    CODE     ---       ClosePump
      00FF1D0FH   PUBLIC    CODE     ---       GetValve
      00FF2A13H   PUBLIC    CODE     ---       StartSamp
      00FF0096H   PUBLIC    CODE     ---       main
      00FF2AF8H   PUBLIC    CODE     ---       InitLcd
      00FF2D71H   PUBLIC    CODE     ---       OutFlash
      00FF3D7FH   PUBLIC    CODE     ---       LedInit
      00FF241BH   PUBLIC    CODE     ---       DumpCmd
      00FF2E2DH   PUBLIC    CODE     ---       HndInput
      00FF3728H   PUBLIC    CODE     ---       FlowTask
      00FF0003H   PUBLIC    CODE     ---       OpenPump
      00FF3130H   PUBLIC    CODE     ---       Task1s
      00FF10B2H   PUBLIC    CODE     ---       GetFlow
      00FF3B64H   PUBLIC    CODE     ---       SendReadFlowCmd
      00FF24C3H   PUBLIC    CODE     ---       StopSamp
      00FF124DH   PUBLIC    CODE     ---       RemPageCtl
      00FF2718H   PUBLIC    CODE     ---       AbnorAlaerm
      00FF3CB1H   PUBLIC    CODE     ---       Timer0Init
      00FF338BH   PUBLIC    CODE     ---       RunLed
      00FF36EEH   PUBLIC    CODE     ---       IoInit
      00FF0A9EH   PUBLIC    CODE     ---       CheckAlarm
      00FF3217H   PUBLIC    CODE     ---       ParamCheck
      00FF3A33H   PUBLIC    CODE     ---       SysInit
      00FF37CFH   PUBLIC    CODE     ---       DevRun
      00FF13C1H   PUBLIC    CODE     ---       OutCtl
      00FF3DE4H   PUBLIC    CODE     ---       RemCtlTask
      00FF3639H   PUBLIC    CODE     ---       Timer0Int
      00FF1AF5H   PUBLIC    CODE     ---       CheckValve
      00FF33D2H   PUBLIC    CODE     ---       Delay
      00FF34ECH   PUBLIC    CODE     ---       ReadParam
      00FF3803H   PUBLIC    CODE     ---       TimingMode
      00FF308FH   PUBLIC    CODE     ---       IoCtlTask
      00FF3C7FH   PUBLIC    CODE     ---       CloseValve
      000001C1H   PUBLIC    EDATA    WORD      DelayCount
      000001C3H   PUBLIC    EDATA    ---       g_OutStatus
      000001D0H   PUBLIC    EDATA    BYTE      Delayflag
      000001D1H   PUBLIC    EDATA    ---       Remchflag
      000001D9H   PUBLIC    EDATA    BYTE      ValveIOFlag
      000001DAH   PUBLIC    EDATA    BYTE      SendFlowFlag
      000001DBH   PUBLIC    EDATA    BYTE      RemPage
      000001DCH   PUBLIC    EDATA    BYTE      g_Key_Confrom
      000001DDH   PUBLIC    EDATA    WORD      gRunTime
      000001DFH   PUBLIC    EDATA    BYTE      RemStart
      000001E0H   PUBLIC    EDATA    BYTE      LcdBusyFlag
L251 LINKER/LOCATER V4.66.93.0                                                        03/22/2024  16:36:51  PAGE 23


      000001E1H   PUBLIC    EDATA    WORD      RemAckTimout
      000001E3H   PUBLIC    EDATA    WORD      Remchtim
      000001E5H   PUBLIC    EDATA    FLOAT     SimFlow
      000001E9H   PUBLIC    EDATA    ---       ChannelError
      000001F2H   PUBLIC    EDATA    BYTE      RemStop
      000001F3H   PUBLIC    EDATA    WORD      SendFlowTim
      000001F5H   PUBLIC    EDATA    WORD      Timer0Cnt
      000001F7H   PUBLIC    EDATA    ---       g_Output
      00000204H   PUBLIC    EDATA    BYTE      ChNum
      00000205H   PUBLIC    EDATA    ---       Remchenable
      0000020DH   PUBLIC    EDATA    BYTE      g_Key_Power
      0000020EH   PUBLIC    EDATA    BYTE      g_Key_Input
      0000020FH   PUBLIC    EDATA    WORD      LcdBusyTim
      00000211H   PUBLIC    EDATA    BYTE      RemAckOut
      00000212H   PUBLIC    EDATA    BYTE      PageSwitch
      00000213H   PUBLIC    EDATA    BYTE      Input_Status
      00FF000AH   PUBLIC    CODE     BYTE      VERSION
      00010916H   PUBLIC    XDATA    ---       SysParam
      00010951H   PUBLIC    XDATA    ---       RunStatus
      0001099EH   PUBLIC    XDATA    ---       RemRegAddr
      000109A4H   PUBLIC    XDATA    ---       RemRunStatus
      000109A6H   PUBLIC    XDATA    ---       StrTmp
      00000094H   SFRSYM    DATA     BYTE      P0M0
      000000D0H   SFRSYM    DATA     BYTE      PSW
      000000BAH.7 SFRSYM    DATA     BIT       EAXFR
      0000009DH   SFRSYM    DATA     BYTE      IRCBAND
      00000097H   SFRSYM    DATA     BYTE      AUXR2
      000000EFH   SFRSYM    DATA     BYTE      AUXINTIF
      000000FDH   SFRSYM    DATA     BYTE      S4CON
      000000ACH   SFRSYM    DATA     BYTE      S3CON
      0000009AH   SFRSYM    DATA     BYTE      S2CON
      000000B7H   SFRSYM    DATA     BYTE      IPH
      000000CDH   SFRSYM    DATA     BYTE      SPSTAT
      000000DDH   SFRSYM    DATA     BYTE      T4T3M
      000000C1H   SFRSYM    DATA     BYTE      WDT_CONTR
      00000088H.4 SFRSYM    DATA     BIT       TR0
      000000B8H.1 SFRSYM    DATA     BIT       PT0
      000000E9H   SFRSYM    DATA     BYTE      WTST
      0000008AH   SFRSYM    DATA     BYTE      TL0
      0000008CH   SFRSYM    DATA     BYTE      TH0
      000000DFH   SFRSYM    DATA     BYTE      IP3
      000000F4H   SFRSYM    DATA     BYTE      USBCON
      000000B5H   SFRSYM    DATA     BYTE      IP2
      000000FFH   SFRSYM    DATA     BYTE      RSTCFG
      000000A8H.1 SFRSYM    DATA     BIT       ET0
      000000C7H   SFRSYM    DATA     BYTE      IAP_CONTR
      000000F9H   SFRSYM    DATA     BYTE      LINICR
      0000008EH   SFRSYM    DATA     BYTE      AUXR
      000000AFH   SFRSYM    DATA     BYTE      IE2
      00000088H   SFRSYM    DATA     BYTE      TCON
      00000089H   SFRSYM    DATA     BYTE      TMOD
      00000098H   SFRSYM    DATA     BYTE      SCON
      000000C1H.4 SFRSYM    DATA     BIT       CLR_WDT
      000000F1H   SFRSYM    DATA     BYTE      CANICR
      00000087H   SFRSYM    DATA     BYTE      PCON
      000000BCH   SFRSYM    DATA     BYTE      ADC_CONTR
      000000E7H   SFRSYM    DATA     BYTE      CMPCR2
      000000E6H   SFRSYM    DATA     BYTE      CMPCR1
      000000B7H.1 SFRSYM    DATA     BIT       PT0H
      000000DEH   SFRSYM    DATA     BYTE      ADCCFG
      000000B8H   SFRSYM    DATA     BYTE      IP
      0000008FH   SFRSYM    DATA     BYTE      INTCLKO
      000000EEH   SFRSYM    DATA     BYTE      IP3H
      000000B6H   SFRSYM    DATA     BYTE      IP2H
      000000A8H   SFRSYM    DATA     BYTE      IE
L251 LINKER/LOCATER V4.66.93.0                                                        03/22/2024  16:36:51  PAGE 24


      000000BBH   SFRSYM    DATA     BYTE      P_SW3
      000000BAH   SFRSYM    DATA     BYTE      P_SW2
      000000A2H   SFRSYM    DATA     BYTE      P_SW1
      000000CEH   SFRSYM    DATA     BYTE      SPCTL
      000000F8H   SFRSYM    DATA     BYTE      P7
      000000A8H.7 SFRSYM    DATA     BIT       EA
      000000E1H   SFRSYM    DATA     BYTE      P7M1
      000000E8H   SFRSYM    DATA     BYTE      P6
      000000C8H   SFRSYM    DATA     BYTE      P5
      000000CBH   SFRSYM    DATA     BYTE      P6M1
      000000E2H   SFRSYM    DATA     BYTE      P7M0
      000000C0H   SFRSYM    DATA     BYTE      P4
      000000C9H   SFRSYM    DATA     BYTE      P5M1
      000000CCH   SFRSYM    DATA     BYTE      P6M0
      000000B0H   SFRSYM    DATA     BYTE      P3
      000000B3H   SFRSYM    DATA     BYTE      P4M1
      000000CAH   SFRSYM    DATA     BYTE      P5M0
      000000A0H   SFRSYM    DATA     BYTE      P2
      000000B1H   SFRSYM    DATA     BYTE      P3M1
      000000B4H   SFRSYM    DATA     BYTE      P4M0
      00000090H   SFRSYM    DATA     BYTE      P1
      00000095H   SFRSYM    DATA     BYTE      P2M1
      000000B2H   SFRSYM    DATA     BYTE      P3M0
      00000080H   SFRSYM    DATA     BYTE      P0
      00000091H   SFRSYM    DATA     BYTE      P1M1
      00000096H   SFRSYM    DATA     BYTE      P2M0
      00000092H   SFRSYM    DATA     BYTE      P1M0
      00000093H   SFRSYM    DATA     BYTE      P0M1

      ---         MODULE    ---      ---       EepRom
      00FF3D27H   PUBLIC    CODE     ---       DisableEEPROM
      00FF3900H   PUBLIC    CODE     ---       EEPROM_SectorErase
      00FF3CC9H   PUBLIC    CODE     ---       EEPROM_Trig
      00FF2BDAH   PUBLIC    CODE     ---       EEPROM_read
      00FF19E0H   PUBLIC    CODE     ---       EEPROM_write
      0000031BH   PUBLIC    EDATA    BYTE      ?EEPROM_read?BYTE
      00000295H   PUBLIC    EDATA    BYTE      ?EEPROM_write?BYTE
      000000D0H   SFRSYM    DATA     BYTE      PSW
      0000009DH   SFRSYM    DATA     BYTE      IRCBAND
      000000D0H.5 SFRSYM    DATA     BIT       F0
      00000097H   SFRSYM    DATA     BYTE      AUXR2
      000000C6H   SFRSYM    DATA     BYTE      IAP_TRIG
      000000EFH   SFRSYM    DATA     BYTE      AUXINTIF
      000000FDH   SFRSYM    DATA     BYTE      S4CON
      000000ACH   SFRSYM    DATA     BYTE      S3CON
      0000009AH   SFRSYM    DATA     BYTE      S2CON
      000000B7H   SFRSYM    DATA     BYTE      IPH
      000000CDH   SFRSYM    DATA     BYTE      SPSTAT
      000000DDH   SFRSYM    DATA     BYTE      T4T3M
      000000C1H   SFRSYM    DATA     BYTE      WDT_CONTR
      000000C2H   SFRSYM    DATA     BYTE      IAP_DATA
      000000DFH   SFRSYM    DATA     BYTE      IP3
      000000F4H   SFRSYM    DATA     BYTE      USBCON
      000000B5H   SFRSYM    DATA     BYTE      IP2
      000000FFH   SFRSYM    DATA     BYTE      RSTCFG
      000000C7H   SFRSYM    DATA     BYTE      IAP_CONTR
      000000F9H   SFRSYM    DATA     BYTE      LINICR
      0000008EH   SFRSYM    DATA     BYTE      AUXR
      000000AFH   SFRSYM    DATA     BYTE      IE2
      00000088H   SFRSYM    DATA     BYTE      TCON
      00000089H   SFRSYM    DATA     BYTE      TMOD
      00000098H   SFRSYM    DATA     BYTE      SCON
      000000F5H   SFRSYM    DATA     BYTE      IAP_TPS
      000000F1H   SFRSYM    DATA     BYTE      CANICR
      00000087H   SFRSYM    DATA     BYTE      PCON
L251 LINKER/LOCATER V4.66.93.0                                                        03/22/2024  16:36:51  PAGE 25


      000000BCH   SFRSYM    DATA     BYTE      ADC_CONTR
      000000E7H   SFRSYM    DATA     BYTE      CMPCR2
      000000E6H   SFRSYM    DATA     BYTE      CMPCR1
      000000C4H   SFRSYM    DATA     BYTE      IAP_ADDRL
      000000C3H   SFRSYM    DATA     BYTE      IAP_ADDRH
      000000F6H   SFRSYM    DATA     BYTE      IAP_ADDRE
      000000DEH   SFRSYM    DATA     BYTE      ADCCFG
      000000B8H   SFRSYM    DATA     BYTE      IP
      0000008FH   SFRSYM    DATA     BYTE      INTCLKO
      000000EEH   SFRSYM    DATA     BYTE      IP3H
      000000B6H   SFRSYM    DATA     BYTE      IP2H
      000000C5H   SFRSYM    DATA     BYTE      IAP_CMD
      000000A8H   SFRSYM    DATA     BYTE      IE
      000000BBH   SFRSYM    DATA     BYTE      P_SW3
      000000BAH   SFRSYM    DATA     BYTE      P_SW2
      000000A2H   SFRSYM    DATA     BYTE      P_SW1
      000000CEH   SFRSYM    DATA     BYTE      SPCTL
      000000F8H   SFRSYM    DATA     BYTE      P7
      000000A8H.7 SFRSYM    DATA     BIT       EA
      000000E8H   SFRSYM    DATA     BYTE      P6
      000000C8H   SFRSYM    DATA     BYTE      P5
      000000C0H   SFRSYM    DATA     BYTE      P4
      000000B0H   SFRSYM    DATA     BYTE      P3
      000000A0H   SFRSYM    DATA     BYTE      P2
      00000090H   SFRSYM    DATA     BYTE      P1
      00000080H   SFRSYM    DATA     BYTE      P0

      ---         MODULE    ---      ---       uart
      00FF3419H   PUBLIC    CODE     ---       UART1_int
      00FF2EE1H   PUBLIC    CODE     ---       UART2_int
      00FF2F38H   PUBLIC    CODE     ---       UART3_int
      00FF32AFH   PUBLIC    CODE     ---       UART4_int
      00FF30E1H   PUBLIC    CODE     ---       UART1_config
      00FF32FAH   PUBLIC    CODE     ---       UART2_config
      00FF379AH   PUBLIC    CODE     ---       UART3_config
      00FF3837H   PUBLIC    CODE     ---       UART4_config
      00FF3D92H   PUBLIC    CODE     ---       ClearUart1Buf
      00FF3D3DH   PUBLIC    CODE     ---       ClearUart2Buf
      00FF3D53H   PUBLIC    CODE     ---       ClearUart3Buf
      00FF3DA4H   PUBLIC    CODE     ---       ClearUart4Buf
      00FF35BAH   PUBLIC    CODE     ---       Uart2Send
      00FF3460H   PUBLIC    CODE     ---       Uart3Send
      00FF34A6H   PUBLIC    CODE     ---       Uart4Send
      00FF3D69H   PUBLIC    CODE     ---       Uart1Hnd
      00FF317DH   PUBLIC    CODE     ---       Uart2Hnd
      00FF3AF6H   PUBLIC    CODE     ---       Uart3Hnd
      00FF3761H   PUBLIC    CODE     ---       Uart4Hnd
      00000020H.0 PUBLIC    BIT      BIT       B_TX1_Busy
      00000020H.1 PUBLIC    BIT      BIT       B_TX2_Busy
      00000020H.2 PUBLIC    BIT      BIT       B_TX3_Busy
      00000020H.3 PUBLIC    BIT      BIT       B_TX4_Busy
      00000021H   PUBLIC    EDATA    ---       RX1_Buffer
      000000E9H   PUBLIC    EDATA    ---       RX4_Buffer
      000001B1H   PUBLIC    EDATA    WORD      Rx1_Timer
      000001B3H   PUBLIC    EDATA    WORD      Rx2_Timer
      000001B5H   PUBLIC    EDATA    WORD      Rx3_Timer
      000001B7H   PUBLIC    EDATA    BYTE      RX1_Cnt
      000001B8H   PUBLIC    EDATA    WORD      Rx4_Timer
      000001BAH   PUBLIC    EDATA    BYTE      RX2_Cnt
      000001BBH   PUBLIC    EDATA    BYTE      RX3_Cnt
      000001BCH   PUBLIC    EDATA    BYTE      TX1_Cnt
      000001BDH   PUBLIC    EDATA    BYTE      RX4_Cnt
      000001BEH   PUBLIC    EDATA    BYTE      TX2_Cnt
      000001BFH   PUBLIC    EDATA    BYTE      TX3_Cnt
      000001C0H   PUBLIC    EDATA    BYTE      TX4_Cnt
L251 LINKER/LOCATER V4.66.93.0                                                        03/22/2024  16:36:51  PAGE 26


      000105F6H   PUBLIC    XDATA    ---       RX2_Buffer
      000106BEH   PUBLIC    XDATA    ---       RX3_Buffer
      000000D0H   SFRSYM    DATA     BYTE      PSW
      0000009DH   SFRSYM    DATA     BYTE      IRCBAND
      00000097H   SFRSYM    DATA     BYTE      AUXR2
      000000FDH.4 SFRSYM    DATA     BIT       S4REN
      000000ACH.4 SFRSYM    DATA     BIT       S3REN
      0000009AH.4 SFRSYM    DATA     BIT       S2REN
      000000B7H.4 SFRSYM    DATA     BIT       PSH
      000000EFH   SFRSYM    DATA     BYTE      AUXINTIF
      000000FDH   SFRSYM    DATA     BYTE      S4CON
      000000ACH   SFRSYM    DATA     BYTE      S3CON
      0000009AH   SFRSYM    DATA     BYTE      S2CON
      00000098H.4 SFRSYM    DATA     BIT       REN
      000000FEH   SFRSYM    DATA     BYTE      S4BUF
      000000ADH   SFRSYM    DATA     BYTE      S3BUF
      0000009BH   SFRSYM    DATA     BYTE      S2BUF
      0000008EH.2 SFRSYM    DATA     BIT       T2x12
      000000B7H   SFRSYM    DATA     BYTE      IPH
      000000CDH   SFRSYM    DATA     BYTE      SPSTAT
      000000DDH   SFRSYM    DATA     BYTE      T4T3M
      000000DDH.7 SFRSYM    DATA     BIT       T4R
      000000DDH.3 SFRSYM    DATA     BIT       T3R
      0000008EH.4 SFRSYM    DATA     BIT       T2R
      000000C1H   SFRSYM    DATA     BYTE      WDT_CONTR
      00000088H.6 SFRSYM    DATA     BIT       TR1
      000000DFH.1 SFRSYM    DATA     BIT       PS4
      000000DFH.0 SFRSYM    DATA     BIT       PS3
      000000B5H.0 SFRSYM    DATA     BIT       PS2
      000000D3H   SFRSYM    DATA     BYTE      T4L
      000000D5H   SFRSYM    DATA     BYTE      T3L
      000000D7H   SFRSYM    DATA     BYTE      T2L
      0000008BH   SFRSYM    DATA     BYTE      TL1
      000000D2H   SFRSYM    DATA     BYTE      T4H
      000000D4H   SFRSYM    DATA     BYTE      T3H
      000000D6H   SFRSYM    DATA     BYTE      T2H
      0000008DH   SFRSYM    DATA     BYTE      TH1
      000000AFH.4 SFRSYM    DATA     BIT       ES4
      000000DFH   SFRSYM    DATA     BYTE      IP3
      000000F4H   SFRSYM    DATA     BYTE      USBCON
      000000AFH.3 SFRSYM    DATA     BIT       ES3
      000000AFH.2 SFRSYM    DATA     BIT       ET2
      000000B5H   SFRSYM    DATA     BYTE      IP2
      000000FFH   SFRSYM    DATA     BYTE      RSTCFG
      000000A8H.3 SFRSYM    DATA     BIT       ET1
      000000AFH.0 SFRSYM    DATA     BIT       ES2
      000000C7H   SFRSYM    DATA     BYTE      IAP_CONTR
      000000F9H   SFRSYM    DATA     BYTE      LINICR
      0000008EH   SFRSYM    DATA     BYTE      AUXR
      000000AFH   SFRSYM    DATA     BYTE      IE2
      00000088H   SFRSYM    DATA     BYTE      TCON
      00000089H   SFRSYM    DATA     BYTE      TMOD
      00000098H   SFRSYM    DATA     BYTE      SCON
      000000F1H   SFRSYM    DATA     BYTE      CANICR
      00000087H   SFRSYM    DATA     BYTE      PCON
      00000099H   SFRSYM    DATA     BYTE      SBUF
      000000BCH   SFRSYM    DATA     BYTE      ADC_CONTR
      000000E7H   SFRSYM    DATA     BYTE      CMPCR2
      000000E6H   SFRSYM    DATA     BYTE      CMPCR1
      000000FDH.1 SFRSYM    DATA     BIT       S4TI
      000000ACH.1 SFRSYM    DATA     BIT       S3TI
      0000009AH.1 SFRSYM    DATA     BIT       S2TI
      000000B8H.4 SFRSYM    DATA     BIT       PS
      000000FDH.0 SFRSYM    DATA     BIT       S4RI
      000000ACH.0 SFRSYM    DATA     BIT       S3RI
L251 LINKER/LOCATER V4.66.93.0                                                        03/22/2024  16:36:51  PAGE 27


      0000009AH.0 SFRSYM    DATA     BIT       S2RI
      000000EEH.1 SFRSYM    DATA     BIT       PS4H
      000000EEH.0 SFRSYM    DATA     BIT       PS3H
      000000B6H.0 SFRSYM    DATA     BIT       PS2H
      00000098H.1 SFRSYM    DATA     BIT       TI
      00000098H.0 SFRSYM    DATA     BIT       RI
      000000DEH   SFRSYM    DATA     BYTE      ADCCFG
      000000B8H   SFRSYM    DATA     BYTE      IP
      000000A8H.4 SFRSYM    DATA     BIT       ES
      0000008FH   SFRSYM    DATA     BYTE      INTCLKO
      000000EEH   SFRSYM    DATA     BYTE      IP3H
      000000B6H   SFRSYM    DATA     BYTE      IP2H
      000000A8H   SFRSYM    DATA     BYTE      IE
      000000BBH   SFRSYM    DATA     BYTE      P_SW3
      000000BAH   SFRSYM    DATA     BYTE      P_SW2
      000000A2H   SFRSYM    DATA     BYTE      P_SW1
      000000CEH   SFRSYM    DATA     BYTE      SPCTL
      000000F8H   SFRSYM    DATA     BYTE      P7
      000000E8H   SFRSYM    DATA     BYTE      P6
      000000C8H   SFRSYM    DATA     BYTE      P5
      000000C0H   SFRSYM    DATA     BYTE      P4
      000000B0H   SFRSYM    DATA     BYTE      P3
      000000A0H   SFRSYM    DATA     BYTE      P2
      00000090H   SFRSYM    DATA     BYTE      P1
      00000080H   SFRSYM    DATA     BYTE      P0

      ---         MODULE    ---      ---       Lcd
      00FF392DH   PUBLIC    CODE     ---       CheckDataLen
      00FF3531H   PUBLIC    CODE     ---       EnterPage
      00FF3B40H   PUBLIC    CODE     ---       ShowModule
      00FF3343H   PUBLIC    CODE     ---       HndLcdFrame
      00FF22B8H   PUBLIC    CODE     ---       LcdCmd
      00FF3D10H   PUBLIC    CODE     ---       HndLcdData
      00FF008EH   PUBLIC    CODE     ---       SwDWord
      00FF0026H   PUBLIC    CODE     ---       ClearRevBuf
      00FF395AH   PUBLIC    CODE     ---       GetLcdTime
      00FF2FE5H   PUBLIC    CODE     ---       PopWord
      00FF236DH   PUBLIC    CODE     ---       SetLcdTime
      00FF3263H   PUBLIC    CODE     ---       SetBkLight
      00FF3C0DH   PUBLIC    CODE     ---       SetTextColor
      00FF3AD0H   PUBLIC    CODE     ---       HideModule
      00FF3DD6H   PUBLIC    CODE     ---       SwWord
      00FF2CACH   PUBLIC    CODE     ---       ValidLcdFrame
      0000041CH   PUBLIC    EDATA    BYTE      RecLength1
      0000041DH   PUBLIC    EDATA    BYTE      LcdFrameloc
      0000041EH   PUBLIC    EDATA    BYTE      DataIndex
      00010786H   PUBLIC    XDATA    ---       SendBuf1
      0001084EH   PUBLIC    XDATA    ---       RecvBuf1
      000000D0H   SFRSYM    DATA     BYTE      PSW
      0000009DH   SFRSYM    DATA     BYTE      IRCBAND
      00000097H   SFRSYM    DATA     BYTE      AUXR2
      000000EFH   SFRSYM    DATA     BYTE      AUXINTIF
      000000FDH   SFRSYM    DATA     BYTE      S4CON
      000000ACH   SFRSYM    DATA     BYTE      S3CON
      0000009AH   SFRSYM    DATA     BYTE      S2CON
      000000B7H   SFRSYM    DATA     BYTE      IPH
      000000CDH   SFRSYM    DATA     BYTE      SPSTAT
      000000DDH   SFRSYM    DATA     BYTE      T4T3M
      000000C1H   SFRSYM    DATA     BYTE      WDT_CONTR
      000000DFH   SFRSYM    DATA     BYTE      IP3
      000000F4H   SFRSYM    DATA     BYTE      USBCON
      000000B5H   SFRSYM    DATA     BYTE      IP2
      000000FFH   SFRSYM    DATA     BYTE      RSTCFG
      000000C7H   SFRSYM    DATA     BYTE      IAP_CONTR
      000000F9H   SFRSYM    DATA     BYTE      LINICR
L251 LINKER/LOCATER V4.66.93.0                                                        03/22/2024  16:36:51  PAGE 28


      0000008EH   SFRSYM    DATA     BYTE      AUXR
      000000AFH   SFRSYM    DATA     BYTE      IE2
      00000088H   SFRSYM    DATA     BYTE      TCON
      00000089H   SFRSYM    DATA     BYTE      TMOD
      00000098H   SFRSYM    DATA     BYTE      SCON
      000000F1H   SFRSYM    DATA     BYTE      CANICR
      00000087H   SFRSYM    DATA     BYTE      PCON
      000000BCH   SFRSYM    DATA     BYTE      ADC_CONTR
      000000E7H   SFRSYM    DATA     BYTE      CMPCR2
      000000E6H   SFRSYM    DATA     BYTE      CMPCR1
      000000DEH   SFRSYM    DATA     BYTE      ADCCFG
      000000B8H   SFRSYM    DATA     BYTE      IP
      0000008FH   SFRSYM    DATA     BYTE      INTCLKO
      000000EEH   SFRSYM    DATA     BYTE      IP3H
      000000B6H   SFRSYM    DATA     BYTE      IP2H
      000000A8H   SFRSYM    DATA     BYTE      IE
      000000BBH   SFRSYM    DATA     BYTE      P_SW3
      000000BAH   SFRSYM    DATA     BYTE      P_SW2
      000000A2H   SFRSYM    DATA     BYTE      P_SW1
      000000CEH   SFRSYM    DATA     BYTE      SPCTL
      000000F8H   SFRSYM    DATA     BYTE      P7
      000000E8H   SFRSYM    DATA     BYTE      P6
      000000C8H   SFRSYM    DATA     BYTE      P5
      000000C0H   SFRSYM    DATA     BYTE      P4
      000000B0H   SFRSYM    DATA     BYTE      P3
      000000A0H   SFRSYM    DATA     BYTE      P2
      00000090H   SFRSYM    DATA     BYTE      P1
      00000080H   SFRSYM    DATA     BYTE      P0

      ---         MODULE    ---      ---       LcdApp
      00FF3C2CH   PUBLIC    CODE     ---       ShowEmStop
      00FF17A9H   PUBLIC    CODE     ---       SendParam
      00FF2567H   PUBLIC    CODE     ---       StatusColor
      00FF3A5BH   PUBLIC    CODE     ---       StartButton
      00FF2201H   PUBLIC    CODE     ---       ReturnStart
      00FF27A1H   PUBLIC    CODE     ---       ModeHint
      00FF0DAFH   PUBLIC    CODE     ---       ReadReg
      00FF1C05H   PUBLIC    CODE     ---       ShowStatus
      00FF0022H   PUBLIC    CODE     ---       WriteReg
      00FF3A0AH   PUBLIC    CODE     ---       VerifyPassWord
      00FF3987H   PUBLIC    CODE     ---       SampCtl
      00FF3C98H   PUBLIC    CODE     ---       ShowTemp
      00FF3BAAH   PUBLIC    CODE     ---       ShowFlow
      00FF3B87H   PUBLIC    CODE     ---       GetInputTime
      00FF31CAH   PUBLIC    CODE     ---       SetSampMode
      00FF3BEDH   PUBLIC    CODE     ---       GetRetCode
      00FF1DF8H   PUBLIC    CODE     ---       ShowDevInfo
      00FF39B3H   PUBLIC    CODE     ---       SetStartBtn
      00FF2084H   PUBLIC    CODE     ---       SetCurTime
      00FF3C4BH   PUBLIC    CODE     ---       ShowRemCh
      00FF28B0H   PUBLIC    CODE     ---       SetRunTime
      00FF2E87H   PUBLIC    CODE     ---       StatusPoint
      00FF2E97H   PUBLIC    CODE     ---       ModeText
      00FF2ED7H   PUBLIC    CODE     ---       TxtColor
      000002A7H   PUBLIC    EDATA    ---       HisAlarm
      000002AFH   PUBLIC    EDATA    ---       ChannelAlarm
      000002B7H   PUBLIC    EDATA    BYTE      NeedGetRet
      0001045EH   PUBLIC    XDATA    ---       ShowParam
      0001048EH   PUBLIC    XDATA    ---       DevInfo
      000104AEH   PUBLIC    XDATA    ---       TempBuf
      0001052EH   PUBLIC    XDATA    ---       RunInfo
      00010566H   PUBLIC    XDATA    ---       ChannelStatus
      000105E6H   PUBLIC    XDATA    ---       RemChStatus
      000000D0H   SFRSYM    DATA     BYTE      PSW
      0000009DH   SFRSYM    DATA     BYTE      IRCBAND
L251 LINKER/LOCATER V4.66.93.0                                                        03/22/2024  16:36:51  PAGE 29


      00000097H   SFRSYM    DATA     BYTE      AUXR2
      000000EFH   SFRSYM    DATA     BYTE      AUXINTIF
      000000FDH   SFRSYM    DATA     BYTE      S4CON
      000000ACH   SFRSYM    DATA     BYTE      S3CON
      0000009AH   SFRSYM    DATA     BYTE      S2CON
      000000B7H   SFRSYM    DATA     BYTE      IPH
      000000CDH   SFRSYM    DATA     BYTE      SPSTAT
      000000DDH   SFRSYM    DATA     BYTE      T4T3M
      000000C1H   SFRSYM    DATA     BYTE      WDT_CONTR
      000000DFH   SFRSYM    DATA     BYTE      IP3
      000000F4H   SFRSYM    DATA     BYTE      USBCON
      000000B5H   SFRSYM    DATA     BYTE      IP2
      000000FFH   SFRSYM    DATA     BYTE      RSTCFG
      000000C7H   SFRSYM    DATA     BYTE      IAP_CONTR
      000000F9H   SFRSYM    DATA     BYTE      LINICR
      0000008EH   SFRSYM    DATA     BYTE      AUXR
      000000AFH   SFRSYM    DATA     BYTE      IE2
      00000088H   SFRSYM    DATA     BYTE      TCON
      00000089H   SFRSYM    DATA     BYTE      TMOD
      00000098H   SFRSYM    DATA     BYTE      SCON
      000000F1H   SFRSYM    DATA     BYTE      CANICR
      00000087H   SFRSYM    DATA     BYTE      PCON
      000000BCH   SFRSYM    DATA     BYTE      ADC_CONTR
      000000E7H   SFRSYM    DATA     BYTE      CMPCR2
      000000E6H   SFRSYM    DATA     BYTE      CMPCR1
      000000DEH   SFRSYM    DATA     BYTE      ADCCFG
      000000B8H   SFRSYM    DATA     BYTE      IP
      0000008FH   SFRSYM    DATA     BYTE      INTCLKO
      000000EEH   SFRSYM    DATA     BYTE      IP3H
      000000B6H   SFRSYM    DATA     BYTE      IP2H
      000000A8H   SFRSYM    DATA     BYTE      IE
      000000BBH   SFRSYM    DATA     BYTE      P_SW3
      000000BAH   SFRSYM    DATA     BYTE      P_SW2
      000000A2H   SFRSYM    DATA     BYTE      P_SW1
      000000CEH   SFRSYM    DATA     BYTE      SPCTL
      000000F8H   SFRSYM    DATA     BYTE      P7
      000000E8H   SFRSYM    DATA     BYTE      P6
      000000C8H   SFRSYM    DATA     BYTE      P5
      000000C0H   SFRSYM    DATA     BYTE      P4
      000000B0H   SFRSYM    DATA     BYTE      P3
      000000A0H   SFRSYM    DATA     BYTE      P2
      00000090H   SFRSYM    DATA     BYTE      P1
      00000080H   SFRSYM    DATA     BYTE      P0

      ---         MODULE    ---      ---       ModBus
      00FF3A82H   PUBLIC    CODE     ---       ValidRtuFrame
      00FF2147H   PUBLIC    CODE     ---       CRC16Calc
      00FF3DDBH   PUBLIC    CODE     ---       RegSw
      000000D0H   SFRSYM    DATA     BYTE      PSW
      0000009DH   SFRSYM    DATA     BYTE      IRCBAND
      00000097H   SFRSYM    DATA     BYTE      AUXR2
      000000EFH   SFRSYM    DATA     BYTE      AUXINTIF
      000000FDH   SFRSYM    DATA     BYTE      S4CON
      000000ACH   SFRSYM    DATA     BYTE      S3CON
      0000009AH   SFRSYM    DATA     BYTE      S2CON
      000000B7H   SFRSYM    DATA     BYTE      IPH
      000000CDH   SFRSYM    DATA     BYTE      SPSTAT
      000000DDH   SFRSYM    DATA     BYTE      T4T3M
      000000C1H   SFRSYM    DATA     BYTE      WDT_CONTR
      000000DFH   SFRSYM    DATA     BYTE      IP3
      000000F4H   SFRSYM    DATA     BYTE      USBCON
      000000B5H   SFRSYM    DATA     BYTE      IP2
      000000FFH   SFRSYM    DATA     BYTE      RSTCFG
      000000C7H   SFRSYM    DATA     BYTE      IAP_CONTR
      000000F9H   SFRSYM    DATA     BYTE      LINICR
L251 LINKER/LOCATER V4.66.93.0                                                        03/22/2024  16:36:51  PAGE 30


      0000008EH   SFRSYM    DATA     BYTE      AUXR
      000000AFH   SFRSYM    DATA     BYTE      IE2
      00000088H   SFRSYM    DATA     BYTE      TCON
      00000089H   SFRSYM    DATA     BYTE      TMOD
      00000098H   SFRSYM    DATA     BYTE      SCON
      000000F1H   SFRSYM    DATA     BYTE      CANICR
      00000087H   SFRSYM    DATA     BYTE      PCON
      000000BCH   SFRSYM    DATA     BYTE      ADC_CONTR
      000000E7H   SFRSYM    DATA     BYTE      CMPCR2
      000000E6H   SFRSYM    DATA     BYTE      CMPCR1
      000000DEH   SFRSYM    DATA     BYTE      ADCCFG
      000000B8H   SFRSYM    DATA     BYTE      IP
      0000008FH   SFRSYM    DATA     BYTE      INTCLKO
      000000EEH   SFRSYM    DATA     BYTE      IP3H
      000000B6H   SFRSYM    DATA     BYTE      IP2H
      000000A8H   SFRSYM    DATA     BYTE      IE
      000000BBH   SFRSYM    DATA     BYTE      P_SW3
      000000BAH   SFRSYM    DATA     BYTE      P_SW2
      000000A2H   SFRSYM    DATA     BYTE      P_SW1
      000000CEH   SFRSYM    DATA     BYTE      SPCTL
      000000F8H   SFRSYM    DATA     BYTE      P7
      000000E8H   SFRSYM    DATA     BYTE      P6
      000000C8H   SFRSYM    DATA     BYTE      P5
      000000C0H   SFRSYM    DATA     BYTE      P4
      000000B0H   SFRSYM    DATA     BYTE      P3
      000000A0H   SFRSYM    DATA     BYTE      P2
      00000090H   SFRSYM    DATA     BYTE      P1
      00000080H   SFRSYM    DATA     BYTE      P0

      ---         MODULE    ---      ---       Temper
      00FF3CE1H   PUBLIC    CODE     ---       Adc_Init
      00FF268CH   PUBLIC    CODE     ---       Get_Temperature
      00FF2F8FH   PUBLIC    CODE     ---       ADC_Temp
      00FF3576H   PUBLIC    CODE     ---       Get_ADC12bitResult
      00FF1533H   PUBLIC    CODE     ---       temp_table
      00000414H   PUBLIC    EDATA    WORD      TEMPER
      00000416H   PUBLIC    EDATA    WORD      TEMPER_Val
      000000D0H   SFRSYM    DATA     BYTE      PSW
      0000009DH   SFRSYM    DATA     BYTE      IRCBAND
      00000097H   SFRSYM    DATA     BYTE      AUXR2
      000000EFH   SFRSYM    DATA     BYTE      AUXINTIF
      000000FDH   SFRSYM    DATA     BYTE      S4CON
      000000ACH   SFRSYM    DATA     BYTE      S3CON
      0000009AH   SFRSYM    DATA     BYTE      S2CON
      000000B7H   SFRSYM    DATA     BYTE      IPH
      000000CDH   SFRSYM    DATA     BYTE      SPSTAT
      000000BEH   SFRSYM    DATA     BYTE      ADC_RESL
      000000DDH   SFRSYM    DATA     BYTE      T4T3M
      000000C1H   SFRSYM    DATA     BYTE      WDT_CONTR
      000000DFH   SFRSYM    DATA     BYTE      IP3
      000000F4H   SFRSYM    DATA     BYTE      USBCON
      000000B5H   SFRSYM    DATA     BYTE      IP2
      000000FFH   SFRSYM    DATA     BYTE      RSTCFG
      000000BCH.5 SFRSYM    DATA     BIT       ADC_FLAG
      000000C7H   SFRSYM    DATA     BYTE      IAP_CONTR
      000000F9H   SFRSYM    DATA     BYTE      LINICR
      0000008EH   SFRSYM    DATA     BYTE      AUXR
      000000AFH   SFRSYM    DATA     BYTE      IE2
      00000088H   SFRSYM    DATA     BYTE      TCON
      00000089H   SFRSYM    DATA     BYTE      TMOD
      00000098H   SFRSYM    DATA     BYTE      SCON
      000000F1H   SFRSYM    DATA     BYTE      CANICR
      00000087H   SFRSYM    DATA     BYTE      PCON
      000000BCH   SFRSYM    DATA     BYTE      ADC_CONTR
      000000E7H   SFRSYM    DATA     BYTE      CMPCR2
L251 LINKER/LOCATER V4.66.93.0                                                        03/22/2024  16:36:51  PAGE 31


      000000E6H   SFRSYM    DATA     BYTE      CMPCR1
      000000DEH   SFRSYM    DATA     BYTE      ADCCFG
      000000B8H   SFRSYM    DATA     BYTE      IP
      0000008FH   SFRSYM    DATA     BYTE      INTCLKO
      000000EEH   SFRSYM    DATA     BYTE      IP3H
      000000B6H   SFRSYM    DATA     BYTE      IP2H
      000000BDH   SFRSYM    DATA     BYTE      ADC_RES
      000000A8H   SFRSYM    DATA     BYTE      IE
      000000BBH   SFRSYM    DATA     BYTE      P_SW3
      000000BAH   SFRSYM    DATA     BYTE      P_SW2
      000000A2H   SFRSYM    DATA     BYTE      P_SW1
      000000CEH   SFRSYM    DATA     BYTE      SPCTL
      000000F8H   SFRSYM    DATA     BYTE      P7
      000000E8H   SFRSYM    DATA     BYTE      P6
      000000C8H   SFRSYM    DATA     BYTE      P5
      000000C0H   SFRSYM    DATA     BYTE      P4
      000000B0H   SFRSYM    DATA     BYTE      P3
      000000A0H   SFRSYM    DATA     BYTE      P2
      00000090H   SFRSYM    DATA     BYTE      P1
      00000080H   SFRSYM    DATA     BYTE      P0

      ---         MODULE    ---      ---       FlowMeter
      00FF1ED6H   PUBLIC    CODE     ---       ReadFlow
      00FF3AA9H   PUBLIC    CODE     ---       SendReadFlow
      00FF303AH   PUBLIC    CODE     ---       FlowMeterAck
      000109E6H   PUBLIC    XDATA    ---       RealFlow
      000000D0H   SFRSYM    DATA     BYTE      PSW
      0000009DH   SFRSYM    DATA     BYTE      IRCBAND
      00000097H   SFRSYM    DATA     BYTE      AUXR2
      000000EFH   SFRSYM    DATA     BYTE      AUXINTIF
      000000FDH   SFRSYM    DATA     BYTE      S4CON
      000000ACH   SFRSYM    DATA     BYTE      S3CON
      0000009AH   SFRSYM    DATA     BYTE      S2CON
      000000B7H   SFRSYM    DATA     BYTE      IPH
      000000CDH   SFRSYM    DATA     BYTE      SPSTAT
      000000DDH   SFRSYM    DATA     BYTE      T4T3M
      000000C1H   SFRSYM    DATA     BYTE      WDT_CONTR
      000000DFH   SFRSYM    DATA     BYTE      IP3
      000000F4H   SFRSYM    DATA     BYTE      USBCON
      000000B5H   SFRSYM    DATA     BYTE      IP2
      000000FFH   SFRSYM    DATA     BYTE      RSTCFG
      000000C7H   SFRSYM    DATA     BYTE      IAP_CONTR
      000000F9H   SFRSYM    DATA     BYTE      LINICR
      0000008EH   SFRSYM    DATA     BYTE      AUXR
      000000AFH   SFRSYM    DATA     BYTE      IE2
      00000088H   SFRSYM    DATA     BYTE      TCON
      00000089H   SFRSYM    DATA     BYTE      TMOD
      00000098H   SFRSYM    DATA     BYTE      SCON
      000000F1H   SFRSYM    DATA     BYTE      CANICR
      00000087H   SFRSYM    DATA     BYTE      PCON
      000000BCH   SFRSYM    DATA     BYTE      ADC_CONTR
      000000E7H   SFRSYM    DATA     BYTE      CMPCR2
      000000E6H   SFRSYM    DATA     BYTE      CMPCR1
      000000DEH   SFRSYM    DATA     BYTE      ADCCFG
      000000B8H   SFRSYM    DATA     BYTE      IP
      0000008FH   SFRSYM    DATA     BYTE      INTCLKO
      000000EEH   SFRSYM    DATA     BYTE      IP3H
      000000B6H   SFRSYM    DATA     BYTE      IP2H
      000000A8H   SFRSYM    DATA     BYTE      IE
      000000BBH   SFRSYM    DATA     BYTE      P_SW3
      000000BAH   SFRSYM    DATA     BYTE      P_SW2
      000000A2H   SFRSYM    DATA     BYTE      P_SW1
      000000CEH   SFRSYM    DATA     BYTE      SPCTL
      000000F8H   SFRSYM    DATA     BYTE      P7
      000000E8H   SFRSYM    DATA     BYTE      P6
L251 LINKER/LOCATER V4.66.93.0                                                        03/22/2024  16:36:51  PAGE 32


      000000C8H   SFRSYM    DATA     BYTE      P5
      000000C0H   SFRSYM    DATA     BYTE      P4
      000000B0H   SFRSYM    DATA     BYTE      P3
      000000A0H   SFRSYM    DATA     BYTE      P2
      00000090H   SFRSYM    DATA     BYTE      P1
      00000080H   SFRSYM    DATA     BYTE      P0

      ---         MODULE    ---      ---       ModBusDev
      00FF1FB0H   PUBLIC    CODE     ---       ReadAck
      00FF282AH   PUBLIC    CODE     ---       WriteAck
      00FF299EH   PUBLIC    CODE     ---       WriteRegValue
      00FF3BCCH   PUBLIC    CODE     ---       SetRegValue
      00FF2928H   PUBLIC    CODE     ---       PackageReg
      00FF389EH   PUBLIC    CODE     ---       ModBusSaveParam
      00FF2DD2H   PUBLIC    CODE     ---       HndModBusRecv
      00010000H   PUBLIC    XDATA    ---       RecvFrame
      00010108H   PUBLIC    XDATA    ---       DevReadAck
      0001020DH   PUBLIC    XDATA    ---       DevWriteAck
      00010215H   PUBLIC    XDATA    ---       ModBusParam
      0001022FH   PUBLIC    XDATA    ---       ModBusStatus
      00010243H   PUBLIC    XDATA    ---       ModBusInfo
      000000D0H   SFRSYM    DATA     BYTE      PSW
      0000009DH   SFRSYM    DATA     BYTE      IRCBAND
      00000097H   SFRSYM    DATA     BYTE      AUXR2
      000000EFH   SFRSYM    DATA     BYTE      AUXINTIF
      000000FDH   SFRSYM    DATA     BYTE      S4CON
      000000ACH   SFRSYM    DATA     BYTE      S3CON
      0000009AH   SFRSYM    DATA     BYTE      S2CON
      000000B7H   SFRSYM    DATA     BYTE      IPH
      000000CDH   SFRSYM    DATA     BYTE      SPSTAT
      000000DDH   SFRSYM    DATA     BYTE      T4T3M
      000000C1H   SFRSYM    DATA     BYTE      WDT_CONTR
      000000DFH   SFRSYM    DATA     BYTE      IP3
      000000F4H   SFRSYM    DATA     BYTE      USBCON
      000000B5H   SFRSYM    DATA     BYTE      IP2
      000000FFH   SFRSYM    DATA     BYTE      RSTCFG
      000000C7H   SFRSYM    DATA     BYTE      IAP_CONTR
      000000F9H   SFRSYM    DATA     BYTE      LINICR
      0000008EH   SFRSYM    DATA     BYTE      AUXR
      000000AFH   SFRSYM    DATA     BYTE      IE2
      00000088H   SFRSYM    DATA     BYTE      TCON
      00000089H   SFRSYM    DATA     BYTE      TMOD
      00000098H   SFRSYM    DATA     BYTE      SCON
      000000F1H   SFRSYM    DATA     BYTE      CANICR
      00000087H   SFRSYM    DATA     BYTE      PCON
      000000BCH   SFRSYM    DATA     BYTE      ADC_CONTR
      000000E7H   SFRSYM    DATA     BYTE      CMPCR2
      000000E6H   SFRSYM    DATA     BYTE      CMPCR1
      000000DEH   SFRSYM    DATA     BYTE      ADCCFG
      000000B8H   SFRSYM    DATA     BYTE      IP
      0000008FH   SFRSYM    DATA     BYTE      INTCLKO
      000000EEH   SFRSYM    DATA     BYTE      IP3H
      000000B6H   SFRSYM    DATA     BYTE      IP2H
      000000A8H   SFRSYM    DATA     BYTE      IE
      000000BBH   SFRSYM    DATA     BYTE      P_SW3
      000000BAH   SFRSYM    DATA     BYTE      P_SW2
      000000A2H   SFRSYM    DATA     BYTE      P_SW1
      000000CEH   SFRSYM    DATA     BYTE      SPCTL
      000000F8H   SFRSYM    DATA     BYTE      P7
      000000E8H   SFRSYM    DATA     BYTE      P6
      000000C8H   SFRSYM    DATA     BYTE      P5
      000000C0H   SFRSYM    DATA     BYTE      P4
      000000B0H   SFRSYM    DATA     BYTE      P3
      000000A0H   SFRSYM    DATA     BYTE      P2
      00000090H   SFRSYM    DATA     BYTE      P1
L251 LINKER/LOCATER V4.66.93.0                                                        03/22/2024  16:36:51  PAGE 33


      00000080H   SFRSYM    DATA     BYTE      P0

      ---         MODULE    ---      ---       ModBusHost
      00FF35FAH   PUBLIC    CODE     ---       SendTcpFrame
      00FF1675H   PUBLIC    CODE     ---       HostSendCmd
      00FF3676H   PUBLIC    CODE     ---       PopReg
      00FF39DFH   PUBLIC    CODE     ---       SendBuffer
      00010249H   PUBLIC    XDATA    ---       WriteAckFrame
      00010251H   PUBLIC    XDATA    ---       HostSendFrame
      00010359H   PUBLIC    XDATA    ---       ReadAckFrame
      00000418H   PUBLIC    EDATA    WORD      HostBufIndex
      0000041AH   PUBLIC    EDATA    ---       MbId
      000002B8H   PUBLIC    EDATA    BYTE      ?HostSendCmd?BYTE
      000000D0H   SFRSYM    DATA     BYTE      PSW
      0000009DH   SFRSYM    DATA     BYTE      IRCBAND
      00000097H   SFRSYM    DATA     BYTE      AUXR2
      000000EFH   SFRSYM    DATA     BYTE      AUXINTIF
      000000FDH   SFRSYM    DATA     BYTE      S4CON
      000000ACH   SFRSYM    DATA     BYTE      S3CON
      0000009AH   SFRSYM    DATA     BYTE      S2CON
      000000B7H   SFRSYM    DATA     BYTE      IPH
      000000CDH   SFRSYM    DATA     BYTE      SPSTAT
      000000DDH   SFRSYM    DATA     BYTE      T4T3M
      000000C1H   SFRSYM    DATA     BYTE      WDT_CONTR
      000000DFH   SFRSYM    DATA     BYTE      IP3
      000000F4H   SFRSYM    DATA     BYTE      USBCON
      000000B5H   SFRSYM    DATA     BYTE      IP2
      000000FFH   SFRSYM    DATA     BYTE      RSTCFG
      000000C7H   SFRSYM    DATA     BYTE      IAP_CONTR
      000000F9H   SFRSYM    DATA     BYTE      LINICR
      0000008EH   SFRSYM    DATA     BYTE      AUXR
      000000AFH   SFRSYM    DATA     BYTE      IE2
      00000088H   SFRSYM    DATA     BYTE      TCON
      00000089H   SFRSYM    DATA     BYTE      TMOD
      00000098H   SFRSYM    DATA     BYTE      SCON
      000000F1H   SFRSYM    DATA     BYTE      CANICR
      00000087H   SFRSYM    DATA     BYTE      PCON
      000000BCH   SFRSYM    DATA     BYTE      ADC_CONTR
      000000E7H   SFRSYM    DATA     BYTE      CMPCR2
      000000E6H   SFRSYM    DATA     BYTE      CMPCR1
      000000DEH   SFRSYM    DATA     BYTE      ADCCFG
      000000B8H   SFRSYM    DATA     BYTE      IP
      0000008FH   SFRSYM    DATA     BYTE      INTCLKO
      000000EEH   SFRSYM    DATA     BYTE      IP3H
      000000B6H   SFRSYM    DATA     BYTE      IP2H
      000000A8H   SFRSYM    DATA     BYTE      IE
      000000BBH   SFRSYM    DATA     BYTE      P_SW3
      000000BAH   SFRSYM    DATA     BYTE      P_SW2
      000000A2H   SFRSYM    DATA     BYTE      P_SW1
      000000CEH   SFRSYM    DATA     BYTE      SPCTL
      000000F8H   SFRSYM    DATA     BYTE      P7
      000000E8H   SFRSYM    DATA     BYTE      P6
      000000C8H   SFRSYM    DATA     BYTE      P5
      000000C0H   SFRSYM    DATA     BYTE      P4
      000000B0H   SFRSYM    DATA     BYTE      P3
      000000A0H   SFRSYM    DATA     BYTE      P2
      00000090H   SFRSYM    DATA     BYTE      P1
      00000080H   SFRSYM    DATA     BYTE      P0

      ---         MODULE    ---      ---       ?C?FPADD
      00FF013EH   PUBLIC    CODE     ---       ?C?FPADD
      00FF013BH   PUBLIC    CODE     ---       ?C?FPSUB

      ---         MODULE    ---      ---       ?C?FPMUL
      00FF01F6H   PUBLIC    CODE     ---       ?C?FPMUL
L251 LINKER/LOCATER V4.66.93.0                                                        03/22/2024  16:36:51  PAGE 34



      ---         MODULE    ---      ---       ?C?FPDIV
      00FF0296H   PUBLIC    CODE     ---       ?C?FPDIV

      ---         MODULE    ---      ---       ?C?FPCMP
      00FF0319H   PUBLIC    CODE     ---       ?C?FPCMP
      00FF0317H   PUBLIC    CODE     ---       ?C?FPCMP3

      ---         MODULE    ---      ---       ?C?FCAST
      00FF0367H   PUBLIC    CODE     NEAR LAB  ?C?FCASTC
      00FF0362H   PUBLIC    CODE     NEAR LAB  ?C?FCASTI
      00FF035DH   PUBLIC    CODE     NEAR LAB  ?C?FCASTL

      ---         MODULE    ---      ---       ?C?CASTF
      00FF039AH   PUBLIC    CODE     NEAR LAB  ?C?CASTF

      ---         MODULE    ---      ---       SPRINTF
      00000267H   PUBLIC    EDATA    ---       ?SPRINTF?BYTE
      00FF03D7H   PUBLIC    CODE     NEAR LAB  SPRINTF

      ---         MODULE    ---      ---       ?C?FPGETOPN
      00FF03F7H   PUBLIC    CODE     ---       ?C?FPGETOPN2
      00FF0434H   PUBLIC    CODE     ---       ?C?FPNANRESULT
      00FF043CH   PUBLIC    CODE     ---       ?C?FPOVERFLOW
      00FF0410H   PUBLIC    CODE     ---       ?C?FPRESULT
      00FF0426H   PUBLIC    CODE     ---       ?C?FPRESULT2
      00FF0439H   PUBLIC    CODE     ---       ?C?FPUNDERFLOW

      ---         MODULE    ---      ---       ?C?PRNFMT
      00FF0475H   PUBLIC    CODE     ---       ?C?PRNFMT

      ---         MODULE    ---      ---       ?C?FPCONVERT
      00FF0892H   PUBLIC    CODE     ---       ?C?FPCONVERT
      00FF094AH   PUBLIC    CODE     ---       ?C?FPROUND

      ---         MODULE    ---      ---       ?C?FTNPWR
      00FF09BDH   PUBLIC    CODE     ---       ?C?FTNPWR

      ---         MODULE    ---      ---       ?C_START
      00FF0000H   PUBLIC    CODE     ---       ?C?STARTUP
      00FF0000H   PUBLIC    CODE     ---       ?C_STARTUP

      ---         MODULE    ---      ---       ?C?INITEDATA
      00FF2B7DH   PUBLIC    CODE     ---       ?C?INITEDATA

      ---         MODULE    ---      ---       ?C?INITHDATA
      00FF2BA6H   PUBLIC    CODE     ---       ?C?INITHDATA

      ---         MODULE    ---      ---       ?C?SIDIV
      00FF09F4H   PUBLIC    CODE     ---       ?C?SIDIV

      ---         MODULE    ---      ---       ?C?ULDIV
      00FF0A28H   PUBLIC    CODE     NEAR LAB  ?C?ULDIV
      00FF0A26H   PUBLIC    CODE     NEAR LAB  ?C?ULIDIV

      ---         MODULE    ---      ---       ?C?BMOVENP
      00FF0A7BH   PUBLIC    CODE     ---       ?C?BMOVENP
      00FF0A79H   PUBLIC    CODE     ---       ?C?BMOVENP8

      ---         MODULE    ---      ---       STRLEN
      00FF3DB6H   PUBLIC    CODE     ---       strlen?_

      ---         MODULE    ---      ---       memcmp
      00FF38D1H   PUBLIC    CODE     ---       memcmp?_

L251 LINKER/LOCATER V4.66.93.0                                                        03/22/2024  16:36:51  PAGE 35


      ---         MODULE    ---      ---       memcpy
      00FF3B1BH   PUBLIC    CODE     ---       memcpy?_

      ---         MODULE    ---      ---       memset
      00FF3C65H   PUBLIC    CODE     ---       memset?_

      ---         MODULE    ---      ---       ?C?INITEDATA_END
      00FF424DH   PUBLIC    HCONST   WORD      ?C?INITEDATA_END

      ---         MODULE    ---      ---       ?C?INITHDATA_END
      00FF40EAH   PUBLIC    HCONST   WORD      ?C?INITHDATA_END

Program Size: data=8.4 edata+hdata=1368 xdata=2642 const=1320 code=15843
L251 RUN COMPLETE.  0 WARNING(S),  0 ERROR(S)
