L251 LINKER/LOCATER V4.66.93.0                                                          05/22/2024  17:23:32  PAGE 1


L251 LINKER/LOCATER V4.66.93.0, INVOKED BY:
D:\KEILMDK\C251\BIN\L251.EXE .\obj\ISR.obj, .\obj\main.obj, .\obj\EepRom.obj, .\obj\uart.obj, .\obj\Lcd.obj, .\obj\LcdAp
>> p.obj, .\obj\ModBus.obj, .\obj\Temper.obj, .\obj\FlowMeter.obj, .\obj\ModBusDev.obj, .\obj\ModBusHost.obj TO .\obj\Pi
>> leCore PRINT (.\obj\PileCore.map) CASE REMOVEUNUSED CLASSES (EDATA (0X0-0XFFF), HDATA (0X0-0XFFF))


CPU MODE:     251 SOURCE MODE
INTR FRAME:   4 BYTES SAVED ON INTERRUPT
MEMORY MODEL: XSMALL WITH FLOATING POINT ARITHMETIC


INPUT MODULES INCLUDED:
  .\obj\ISR.obj (ISR)
         COMMENT TYPE 0: A251 V4.69.13.0
  .\obj\main.obj (main)
         COMMENT TYPE 0: C251 V5.60.0
  .\obj\EepRom.obj (EepRom)
         COMMENT TYPE 0: C251 V5.60.0
  .\obj\uart.obj (uart)
         COMMENT TYPE 0: C251 V5.60.0
  .\obj\Lcd.obj (Lcd)
         COMMENT TYPE 0: C251 V5.60.0
  .\obj\LcdApp.obj (LcdApp)
         COMMENT TYPE 0: C251 V5.60.0
  .\obj\ModBus.obj (ModBus)
         COMMENT TYPE 0: C251 V5.60.0
  .\obj\Temper.obj (Temper)
         COMMENT TYPE 0: C251 V5.60.0
  .\obj\FlowMeter.obj (FlowMeter)
         COMMENT TYPE 0: C251 V5.60.0
  .\obj\ModBusDev.obj (ModBusDev)
         COMMENT TYPE 0: C251 V5.60.0
  .\obj\ModBusHost.obj (ModBusHost)
         COMMENT TYPE 0: C251 V5.60.0
  D:\KEILMDK\C251\LIB\C2SFPXS.LIB (?C?FPADD)
         COMMENT TYPE 0: A251 V4.69.6.0
  D:\KEILMDK\C251\LIB\C2SFPXS.LIB (?C?FPMUL)
         COMMENT TYPE 0: A251 V4.69.6.0
  D:\KEILMDK\C251\LIB\C2SFPXS.LIB (?C?FPDIV)
         COMMENT TYPE 0: A251 V4.69.6.0
  D:\KEILMDK\C251\LIB\C2SFPXS.LIB (?C?FPCMP)
         COMMENT TYPE 0: A251 V4.69.6.0
  D:\KEILMDK\C251\LIB\C2SFPXS.LIB (?C?FCAST)
         COMMENT TYPE 0: A251 V4.69.6.0
  D:\KEILMDK\C251\LIB\C2SFPXS.LIB (?C?CASTF)
         COMMENT TYPE 0: A251 V4.69.6.0
  D:\KEILMDK\C251\LIB\C2SFPXS.LIB (SPRINTF)
         COMMENT TYPE 0: A251 V4.69.6.0
  D:\KEILMDK\C251\LIB\C2SFPXS.LIB (?C?FPGETOPN)
         COMMENT TYPE 0: A251 V4.69.6.0
  D:\KEILMDK\C251\LIB\C2SFPXS.LIB (?C?PRNFMT)
         COMMENT TYPE 0: A251 V4.69.6.0
  D:\KEILMDK\C251\LIB\C2SFPXS.LIB (?C?FPCONVERT)
         COMMENT TYPE 0: A251 V4.69.6.0
  D:\KEILMDK\C251\LIB\C2SFPXS.LIB (?C?FTNPWR)
         COMMENT TYPE 0: A251 V4.69.6.0
  D:\KEILMDK\C251\LIB\C2SXS.LIB (?C_START)
         COMMENT TYPE 0: A251 V4.69.6.0
  D:\KEILMDK\C251\LIB\C2SXS.LIB (?C?INITEDATA)
         COMMENT TYPE 0: A251 V4.69.6.0
  D:\KEILMDK\C251\LIB\C2SXS.LIB (?C?INITHDATA)
         COMMENT TYPE 0: A251 V4.69.6.0
  D:\KEILMDK\C251\LIB\C2SXS.LIB (?C?SIDIV)
         COMMENT TYPE 0: A251 V4.69.6.0
  D:\KEILMDK\C251\LIB\C2SXS.LIB (?C?LIMUL)
         COMMENT TYPE 0: A251 V4.69.6.0
L251 LINKER/LOCATER V4.66.93.0                                                        05/22/2024  17:23:32  PAGE 2


  D:\KEILMDK\C251\LIB\C2SXS.LIB (?C?ULDIV)
         COMMENT TYPE 0: A251 V4.69.6.0
  D:\KEILMDK\C251\LIB\C2SXS.LIB (?C?BMOVENP)
         COMMENT TYPE 0: A251 V4.69.6.0
  D:\KEILMDK\C251\LIB\C2SXS.LIB (STRLEN)
         COMMENT TYPE 0: C251 V5.58.7
  D:\KEILMDK\C251\LIB\C2SXS.LIB (memcmp)
         COMMENT TYPE 0: C251 V5.58.7
  D:\KEILMDK\C251\LIB\C2SXS.LIB (memcpy)
         COMMENT TYPE 0: C251 V5.58.7
  D:\KEILMDK\C251\LIB\C2SXS.LIB (memset)
         COMMENT TYPE 0: C251 V5.58.7
  D:\KEILMDK\C251\LIB\C2SXS.LIB (?C?INITEDATA_END)
         COMMENT TYPE 0: A251 V4.69.6.0
  D:\KEILMDK\C251\LIB\C2SXS.LIB (?C?INITHDATA_END)
         COMMENT TYPE 0: A251 V4.69.6.0


ACTIVE MEMORY CLASSES OF MODULE:  .\obj\PileCore (ISR)

BASE        START       END         USED      MEMORY CLASS
==========================================================
000000H     000000H     000FFFH     000552H   EDATA
000000H     000000H     000FFFH               HDATA
FF0000H     FF0000H     FFFFFFH     0048EAH   CODE
000000H     FF0000H     FFFFFFH     000530H   HCONST
010000H     010000H     01FFFFH     000B4DH   XDATA
000020H.0   000020H.0   00002FH.7   000000H.4 BIT
FF0000H     FF0000H     FFFFFFH     000004H   CONST
000000H     000000H     00007FH     000008H   DATA


MEMORY MAP OF MODULE:  .\obj\PileCore (ISR)


START     STOP      LENGTH    ALIGN  RELOC    MEMORY CLASS   SEGMENT NAME
=========================================================================
000000H   000007H   000008H   ---    AT..     DATA           "REG BANK 0"
000008H   00001DH   000016H   BYTE   UNIT     EDATA          ?ED?SETLCDTIME?LCD
00001EH   00001FH   000002H   BYTE   UNIT     EDATA          ?ED?DEBUGINT?MAIN
000020H.0 000020H.3 000000H.4 BIT    UNIT     BIT            ?BI?UART
000020H.4 000020H   000000H.4 ---    ---      **GAP**
000021H   0001C0H   0001A0H   BYTE   UNIT     EDATA          ?ED?UART
0001C1H   000230H   000070H   BYTE   UNIT     EDATA          ?ED?MAIN
000231H   000258H   000028H   BYTE   UNIT     EDATA          _EDATA_GROUP_
000259H   000272H   00001AH   BYTE   UNIT     EDATA          ?ED?SETCURTIME?LCDAPP
000273H   000286H   000014H   BYTE   UNIT     EDATA          ?ED?CRC16CALC?MODBUS
000287H   000298H   000012H   BYTE   UNIT     EDATA          ?ED?EEPROM_WRITE?EEPROM
000299H   0002A9H   000011H   BYTE   UNIT     EDATA          ?ED?LCDAPP
0002AAH   0002BAH   000011H   BYTE   UNIT     EDATA          ?ED?HOSTSENDCMD?MODBUSHOST
0002BBH   0002C6H   00000CH   BYTE   UNIT     EDATA          ?ED?LCDCMD?LCD
0002C7H   0002D2H   00000CH   BYTE   UNIT     EDATA          ?ED?FLOATTOBYTES?MODBUS
0002D3H   0002DEH   00000CH   BYTE   UNIT     EDATA          ?ED?BYTESTOFLOAT?MODBUS
0002DFH   0002EAH   00000CH   BYTE   UNIT     EDATA          ?ED?BYTESTODWORD?MODBUS
0002EBH   0002F6H   00000CH   BYTE   UNIT     EDATA          ?ED?PACKAGEREG?MODBUSDEV
0002F7H   000302H   00000CH   BYTE   UNIT     EDATA          ?ED?WRITEREGVALUE?MODBUSDEV
000303H   00030CH   00000AH   BYTE   UNIT     EDATA          ?ED?PARAMCHECK?MAIN
00030DH   000316H   00000AH   BYTE   UNIT     EDATA          ?ED?EEPROM_READ?EEPROM
000317H   000320H   00000AH   BYTE   UNIT     EDATA          ?ED?SETRUNTIME?LCDAPP
000321H   00032AH   00000AH   BYTE   UNIT     EDATA          ?ED?PACKAGEFLOATVALUE?MODBUSDEV
00032BH   000334H   00000AH   BYTE   UNIT     EDATA          ?ED?PACKAGEDWORDVALUE?MODBUSDEV
000335H   00033EH   00000AH   BYTE   UNIT     EDATA          ?ED?SENDTCPFRAME?MODBUSHOST
00033FH   000347H   000009H   BYTE   UNIT     EDATA          ?ED?READFLOW?FLOWMETER
000348H   00034FH   000008H   BYTE   UNIT     EDATA          ?ED?BYTECONVERT?MODBUS
000350H   000357H   000008H   BYTE   UNIT     EDATA          ?ED?BYTESTOWORD?MODBUS
L251 LINKER/LOCATER V4.66.93.0                                                        05/22/2024  17:23:32  PAGE 3


000358H   00035FH   000008H   BYTE   UNIT     EDATA          ?ED?SWENDIAN?MODBUS
000360H   000366H   000007H   BYTE   UNIT     EDATA          ?ED?GETFLOW?MAIN
000367H   00036DH   000007H   BYTE   UNIT     EDATA          ?ED?VALIDRTUFRAME?MODBUS
00036EH   000374H   000007H   BYTE   UNIT     EDATA          ?ED?SENDBUFFER?MODBUSHOST
000375H   00037AH   000006H   BYTE   UNIT     EDATA          ?ED?DUMPCMD?MAIN
00037BH   000380H   000006H   BYTE   UNIT     EDATA          ?ED?UART1SEND?UART
000381H   000386H   000006H   BYTE   UNIT     EDATA          ?ED?UART2SEND?UART
000387H   00038CH   000006H   BYTE   UNIT     EDATA          ?ED?UART3SEND?UART
00038DH   000392H   000006H   BYTE   UNIT     EDATA          ?ED?UART4SEND?UART
000393H   000398H   000006H   BYTE   UNIT     EDATA          ?ED?VALIDLCDFRAME?LCD
000399H   00039EH   000006H   BYTE   UNIT     EDATA          ?ED?POPWORD?LCD
00039FH   0003A4H   000006H   BYTE   UNIT     EDATA          ?ED?SHOWMODULE?LCD
0003A5H   0003AAH   000006H   BYTE   UNIT     EDATA          ?ED?READREG?LCDAPP
0003ABH   0003B0H   000006H   BYTE   UNIT     EDATA          ?ED?VALIDTCPFRAME?MODBUS
0003B1H   0003B6H   000006H   BYTE   UNIT     EDATA          ?ED?GET_TEMPERATURE?TEMPER
0003B7H   0003BCH   000006H   BYTE   UNIT     EDATA          ?ED?FLOWMETERACK?FLOWMETER
0003BDH   0003C2H   000006H   BYTE   UNIT     EDATA          ?ED?PACKAGEWORDVALUE?MODBUSDEV
0003C3H   0003C8H   000006H   BYTE   UNIT     EDATA          ?ED?READACK?MODBUSDEV
0003C9H   0003CDH   000005H   BYTE   UNIT     EDATA          ?ED?DEBUGMSG?MAIN
0003CEH   0003D2H   000005H   BYTE   UNIT     EDATA          ?ED?CHECKALARM?MAIN
0003D3H   0003D7H   000005H   BYTE   UNIT     EDATA          ?ED?CHECKDATALEN?LCD
0003D8H   0003DCH   000005H   BYTE   UNIT     EDATA          ?ED?ENTERPAGE?LCD
0003DDH   0003E1H   000005H   BYTE   UNIT     EDATA          ?ED?HNDMODBUSRECV?MODBUSDEV
0003E2H   0003E5H   000004H   BYTE   UNIT     EDATA          ?ED?RUNLED?MAIN
0003E6H   0003E9H   000004H   BYTE   UNIT     EDATA          ?ED?DELAY?MAIN
0003EAH   0003EDH   000004H   BYTE   UNIT     EDATA          ?ED?EEPROM_SECTORERASE?EEPROM
0003EEH   0003F1H   000004H   BYTE   UNIT     EDATA          ?ED?SWDWORD?LCD
0003F2H   0003F5H   000004H   BYTE   UNIT     EDATA          ?ED?HNDLCDFRAME?LCD
0003F6H   0003F9H   000004H   BYTE   UNIT     EDATA          ?ED?SETTEXTCOLOR?LCD
0003FAH   0003FDH   000004H   BYTE   UNIT     EDATA          ?ED?HIDEMODULE?LCD
0003FEH   000401H   000004H   BYTE   UNIT     EDATA          ?ED?SHOWTEMP?LCDAPP
000402H   000405H   000004H   BYTE   UNIT     EDATA          ?ED?SWENDIANW?MODBUS
000406H   000409H   000004H   BYTE   UNIT     EDATA          ?ED?TEMPER
00040AH   00040DH   000004H   BYTE   UNIT     EDATA          ?ED?MODBUSHOST
00040EH   000410H   000003H   BYTE   UNIT     EDATA          ?ED?LCD
000411H   000413H   000003H   BYTE   UNIT     EDATA          ?ED?SETBKLIGHT?LCD
000414H   000416H   000003H   BYTE   UNIT     EDATA          ?ED?SHOWEMSTOP?LCDAPP
000417H   000419H   000003H   BYTE   UNIT     EDATA          ?ED?GET_ADC12BITRESULT?TEMPER
00041AH   00041CH   000003H   BYTE   UNIT     EDATA          ?ED?SENDREADFLOW?FLOWMETER
00041DH   00041EH   000002H   BYTE   UNIT     EDATA          ?ED?OUTCTL?MAIN
00041FH   000420H   000002H   BYTE   UNIT     EDATA          ?ED?TIMERTASK?MAIN
000421H   000422H   000002H   BYTE   UNIT     EDATA          ?ED?DELAY_MS?MAIN
000423H   000424H   000002H   BYTE   UNIT     EDATA          ?ED?STOPSAMP?MAIN
000425H   000426H   000002H   BYTE   UNIT     EDATA          ?ED?TIMINGMODE?MAIN
000427H   000428H   000002H   BYTE   UNIT     EDATA          ?ED?VOLUMEMODE?MAIN
000429H   00042AH   000002H   BYTE   UNIT     EDATA          ?ED?ABNORALAERM?MAIN
00042BH   00042CH   000002H   BYTE   UNIT     EDATA          ?ED?SWWORD?LCD
00042DH   00042EH   000002H   BYTE   UNIT     EDATA          ?ED?SHOWDEVINFO?LCDAPP
00042FH   000430H   000002H   BYTE   UNIT     EDATA          ?ED?STARTBUTTON?LCDAPP
000431H   000432H   000002H   BYTE   UNIT     EDATA          ?ED?VERIFYPASSWORD?LCDAPP
000433H   000434H   000002H   BYTE   UNIT     EDATA          ?ED?RETURNSTART?LCDAPP
000435H   000436H   000002H   BYTE   UNIT     EDATA          ?ED?SAMPCTL?LCDAPP
000437H   000438H   000002H   BYTE   UNIT     EDATA          ?ED?STATUSCOLOR?LCDAPP
000439H   00043AH   000002H   BYTE   UNIT     EDATA          ?ED?SETCHCOUNT?LCDAPP
00043BH   00043CH   000002H   BYTE   UNIT     EDATA          ?ED?REGSW?MODBUS
00043DH   00043EH   000002H   BYTE   UNIT     EDATA          ?ED?WRITEACK?MODBUSDEV
00043FH   000440H   000002H   BYTE   UNIT     EDATA          ?ED?POPREG?MODBUSHOST
000441H   000441H   000001H   BYTE   UNIT     EDATA          ?ED?OUTFLASH?MAIN
000442H   000442H   000001H   BYTE   UNIT     EDATA          ?ED?IOCTLTASK?MAIN
000443H   000443H   000001H   BYTE   UNIT     EDATA          ?ED?GETINPUT?MAIN
000444H   000444H   000001H   BYTE   UNIT     EDATA          ?ED?PARAMDEF?MAIN
000445H   000445H   000001H   BYTE   UNIT     EDATA          ?ED?UPDATAUI?MAIN
000446H   000446H   000001H   BYTE   UNIT     EDATA          ?ED?STARTSAMP?MAIN
000447H   000447H   000001H   BYTE   UNIT     EDATA          ?ED?CHECKMODESTOP?MAIN
000448H   000448H   000001H   BYTE   UNIT     EDATA          ?ED?CHANNEL_MANMODE?MAIN
L251 LINKER/LOCATER V4.66.93.0                                                        05/22/2024  17:23:32  PAGE 4


000449H   000449H   000001H   BYTE   UNIT     EDATA          ?ED?DEVRUN?MAIN
00044AH   00044AH   000001H   BYTE   UNIT     EDATA          ?ED?GETVALVE?MAIN
00044BH   00044BH   000001H   BYTE   UNIT     EDATA          ?ED?CHECKVALVE?MAIN
00044CH   00044CH   000001H   BYTE   UNIT     EDATA          ?ED?SENDREADFLOWCMD?MAIN
00044DH   00044DH   000001H   BYTE   UNIT     EDATA          ?ED?GETALARM?MAIN
00044EH   00044EH   000001H   BYTE   UNIT     EDATA          ?ED?SYNCMODBUSDEV?MAIN
00044FH   00044FH   000001H   BYTE   UNIT     EDATA          ?ED?REMPAGECTL?MAIN
000450H   000450H   000001H   BYTE   UNIT     EDATA          ?ED?PUTCHAR?UART
000451H   000451H   000001H   BYTE   UNIT     EDATA          ?ED?UART4HND?UART
000452H   000452H   000001H   BYTE   UNIT     EDATA          ?ED?GETLCDTIME?LCD
000453H   000453H   000001H   BYTE   UNIT     EDATA          ?ED?SETSTARTBTN?LCDAPP
000454H   000454H   000001H   BYTE   UNIT     EDATA          ?ED?GETRETCODE?LCDAPP
000455H   000455H   000001H   BYTE   UNIT     EDATA          ?ED?SHOWSTATUS?LCDAPP
000456H   000456H   000001H   BYTE   UNIT     EDATA          ?ED?SHOWREMCH?LCDAPP
000457H   000457H   000001H   BYTE   UNIT     EDATA          ?ED?SENDPARAM?LCDAPP
000458H   000458H   000001H   BYTE   UNIT     EDATA          ?ED?SENDCHANNELPARAM?LCDAPP
000459H   000459H   000001H   BYTE   UNIT     EDATA          ?ED?GETINPUTTIME?LCDAPP
00045AH   00045AH   000001H   BYTE   UNIT     EDATA          ?ED?MODBUSSAVEPARAM?MODBUSDEV
00045BH   00055AH   000100H   BYTE   UNIT     EDATA          ?STACK
00055BH   00FFFFH   00FAA5H   ---    ---      **GAP**
010000H   01024AH   00024BH   BYTE   INSEG    XDATA          ?XD?MODBUSDEV
01024BH   010482H   000238H   BYTE   INSEG    XDATA          ?XD?LCDAPP
010483H   010697H   000215H   BYTE   INSEG    XDATA          ?XD?MODBUSHOST
010698H   010827H   000190H   BYTE   INSEG    XDATA          ?XD?UART
010828H   0109B7H   000190H   BYTE   INSEG    XDATA          ?XD?LCD
0109B8H   010AE0H   000129H   BYTE   INSEG    XDATA          ?XD?MAIN
010AE1H   010B4CH   00006CH   BYTE   INSEG    XDATA          ?XD?FLOWMETER
010B4DH   FEFFFFH   FDF4B3H   ---    ---      **GAP**
FF0000H   FF0002H   000003H   ---    OFFS..   CODE           ?CO?start251?4
FF0003H   FF0009H   000007H   BYTE   INSEG    CODE           ?PR?OPENPUMP?MAIN
FF000AH   FF000AH   000001H   BYTE   UNIT     CODE           ?CO?MAIN
FF000BH   FF000DH   000003H   ---    OFFS..   CODE           ?PR?IV?1
FF000EH   FF0020H   000013H   BYTE   INSEG    CODE           ?PR?LEDINIT?MAIN
FF0021H   FF0021H   000001H   BYTE   INSEG    CODE           ?PR?WRITEREG?LCDAPP
FF0022H   FF0022H   000001H   ---    ---      **GAP**
FF0023H   FF0025H   000003H   ---    OFFS..   CODE           ?PR?IV?4
FF0026H   FF0041H   00001CH   BYTE   INSEG    CODE           ?PR?RUNCHECK?MAIN
FF0042H   FF0042H   000001H   ---    ---      **GAP**
FF0043H   FF0045H   000003H   ---    OFFS..   CODE           ?PR?IV?8
FF0046H   FF008AH   000045H   BYTE   INSEG    CODE           ?PR?WRITEPARAM?MAIN
FF008BH   FF008DH   000003H   ---    OFFS..   CODE           ?PR?IV?17
FF008EH   FF0092H   000005H   BYTE   INSEG    CODE           ?PR?SWDWORD?LCD
FF0093H   FF0095H   000003H   ---    OFFS..   CODE           ?PR?IV?18
FF0096H   FF012AH   000095H   BYTE   INSEG    CODE           ?PR?MAIN?MAIN
FF012BH   FF012FH   000005H   ---    OFFS..   CODE           ?CO?ISR?1
FF0130H   FF0132H   000003H   ---    ---      **GAP**
FF0133H   FF0137H   000005H   ---    OFFS..   CODE           ?CO?ISR?2
FF0138H   FF0AA6H   00096FH   BYTE   UNIT     CODE           ?C?LIB_CODE
FF0AA7H   FF0F43H   00049DH   BYTE   INSEG    CODE           ?PR?READREG?LCDAPP
FF0F44H   FF125CH   000319H   BYTE   INSEG    CODE           ?PR?CHECKALARM?MAIN
FF125DH   FF1437H   0001DBH   BYTE   INSEG    CODE           ?PR?VOLUMEMODE?MAIN
FF1438H   FF1601H   0001CAH   BYTE   INSEG    CODE           ?PR?TIMINGMODE?MAIN
FF1602H   FF179CH   00019BH   BYTE   INSEG    CODE           ?PR?GETFLOW?MAIN
FF179DH   FF1919H   00017DH   BYTE   INSEG    CODE           ?PR?REMPAGECTL?MAIN
FF191AH   FF1A8BH   000172H   BYTE   INSEG    CODE           ?PR?OUTCTL?MAIN
FF1A8CH   FF1BDEH   000153H   BYTE   INSEG    CODE           ?PR?CHANNEL_MANMODE?MAIN
FF1BDFH   FF1D20H   000142H   BYTE   UNIT     CODE           ?CO?TEMPER
FF1D21H   FF1E54H   000134H   BYTE   INSEG    CODE           ?PR?HOSTSENDCMD?MODBUSHOST
FF1E55H   FF1F85H   000131H   BYTE   INSEG    CODE           ?PR?GETVALVE?MAIN
FF1F86H   FF20A5H   000120H   BYTE   INSEG    CODE           ?PR?SENDPARAM?LCDAPP
FF20A6H   FF21BCH   000117H   BYTE   INSEG    CODE           ?PR?TIMERTASK?MAIN
FF21BDH   FF22D1H   000115H   BYTE   INSEG    CODE           ?PR?EEPROM_WRITE?EEPROM
FF22D2H   FF23E1H   000110H   BYTE   INSEG    CODE           ?PR?CHECKVALVE?MAIN
FF23E2H   FF24EBH   00010AH   BYTE   INSEG    CODE           ?PR?SHOWSTATUS?LCDAPP
FF24ECH   FF25EDH   000102H   BYTE   INSEG    CODE           ?PR?SENDCHANNELPARAM?LCDAPP
L251 LINKER/LOCATER V4.66.93.0                                                        05/22/2024  17:23:32  PAGE 5


FF25EEH   FF26CBH   0000DEH   BYTE   INSEG    CODE           ?PR?SHOWDEVINFO?LCDAPP
FF26CCH   FF27A5H   0000DAH   BYTE   INSEG    CODE           ?PR?READFLOW?FLOWMETER
FF27A6H   FF2879H   0000D4H   BYTE   INSEG    CODE           ?PR?READACK?MODBUSDEV
FF287AH   FF294BH   0000D2H   BYTE   INSEG    CODE           ?PR?PARAMDEF?MAIN
FF294CH   FF2A0EH   0000C3H   BYTE   INSEG    CODE           ?PR?SETCURTIME?LCDAPP
FF2A0FH   FF2AC8H   0000BAH   BYTE   INSEG    CODE           ?PR?CRC16CALC?MODBUS
FF2AC9H   FF2B7FH   0000B7H   BYTE   INSEG    CODE           ?PR?RETURNSTART?LCDAPP
FF2B80H   FF2C34H   0000B5H   BYTE   INSEG    CODE           ?PR?LCDCMD?LCD
FF2C35H   FF2CE2H   0000AEH   BYTE   INSEG    CODE           ?PR?SETLCDTIME?LCD
FF2CE3H   FF2D8EH   0000ACH   BYTE   INSEG    CODE           ?PR?STOPSAMP?MAIN
FF2D8FH   FF2E36H   0000A8H   BYTE   INSEG    CODE           ?PR?DUMPCMD?MAIN
FF2E37H   FF2ED9H   0000A3H   BYTE   INSEG    CODE           ?PR?DEVRUN?MAIN
FF2EDAH   FF2F70H   000097H   BYTE   INSEG    CODE           ?PR?STATUSCOLOR?LCDAPP
FF2F71H   FF2FFCH   00008CH   BYTE   INSEG    CODE           ?PR?GET_TEMPERATURE?TEMPER
FF2FFDH   FF3085H   000089H   BYTE   INSEG    CODE           ?PR?ABNORALAERM?MAIN
FF3086H   FF310EH   000089H   BYTE   INSEG    CODE           ?PR?MODEHINT?LCDAPP
FF310FH   FF3194H   000086H   BYTE   INSEG    CODE           ?PR?WRITEACK?MODBUSDEV
FF3195H   FF3212H   00007EH   BYTE   INSEG    CODE           ?PR?SYNCMODBUSDEV?MAIN
FF3213H   FF328EH   00007CH   BYTE   INSEG    CODE           ?PR?INITLCD?MAIN
FF328FH   FF3306H   000078H   BYTE   INSEG    CODE           ?PR?STARTSAMP?MAIN
FF3307H   FF337EH   000078H   BYTE   INSEG    CODE           ?PR?SETRUNTIME?LCDAPP
FF337FH   FF33F4H   000076H   BYTE   INSEG    CODE           ?PR?PACKAGEREG?MODBUSDEV
FF33F5H   FF3469H   000075H   BYTE   INSEG    CODE           ?PR?WRITEREGVALUE?MODBUSDEV
FF346AH   FF347CH   000013H   BYTE   UNIT     CODE           ?C_C51STARTUP
FF347DH   FF34D6H   00005AH   BYTE   UNIT     CODE           ?C_C51STARTUP?2
FF34D7H   FF34D9H   000003H   BYTE   UNIT     CODE           ?C_C51STARTUP?3
FF34DAH   FF3545H   00006CH   BYTE   INSEG    CODE           ?PR?EEPROM_READ?EEPROM
FF3546H   FF35ABH   000066H   BYTE   INSEG    CODE           ?PR?GETALARM?MAIN
FF35ACH   FF360FH   000064H   BYTE   INSEG    CODE           ?PR?VALIDLCDFRAME?LCD
FF3610H   FF3670H   000061H   BYTE   INSEG    CODE           ?PR?UPDATAUI?MAIN
FF3671H   FF36D1H   000061H   BYTE   INSEG    CODE           ?PR?OUTFLASH?MAIN
FF36D2H   FF372CH   00005BH   BYTE   INSEG    CODE           ?PR?HNDMODBUSRECV?MODBUSDEV
FF372DH   FF3786H   00005AH   BYTE   INSEG    CODE           ?PR?HNDINPUT?MAIN
FF3787H   FF37E0H   00005AH   BYTE   UNIT     CODE           ?CO?LCDAPP
FF37E1H   FF3837H   000057H   BYTE   INSEG    CODE           ?PR?UART2_INT?UART
FF3838H   FF388EH   000057H   BYTE   INSEG    CODE           ?PR?UART3_INT?UART
FF388FH   FF38E4H   000056H   BYTE   INSEG    CODE           ?PR?ADC_TEMP?TEMPER
FF38E5H   FF3939H   000055H   BYTE   INSEG    CODE           ?PR?POPWORD?LCD
FF393AH   FF398EH   000055H   BYTE   INSEG    CODE           ?PR?FLOWMETERACK?FLOWMETER
FF398FH   FF39E0H   000052H   BYTE   INSEG    CODE           ?PR?IOCTLTASK?MAIN
FF39E1H   FF3A2FH   00004FH   BYTE   INSEG    CODE           ?PR?UART1_CONFIG?UART
FF3A30H   FF3A7CH   00004DH   BYTE   INSEG    CODE           ?PR?TASK1S?MAIN
FF3A7DH   FF3AC9H   00004DH   BYTE   INSEG    CODE           ?PR?UART2HND?UART
FF3ACAH   FF3B16H   00004DH   BYTE   INSEG    CODE           ?PR?SETCHANNEL1MODE?LCDAPP
FF3B17H   FF3B63H   00004DH   BYTE   INSEG    CODE           ?PR?SETCHANNEL2MODE?LCDAPP
FF3B64H   FF3BB0H   00004DH   BYTE   INSEG    CODE           ?PR?SETCHANNEL3MODE?LCDAPP
FF3BB1H   FF3BFDH   00004DH   BYTE   INSEG    CODE           ?PR?SETCHANNEL4MODE?LCDAPP
FF3BFEH   FF3C4AH   00004DH   BYTE   INSEG    CODE           ?PR?SETCHANNEL5MODE?LCDAPP
FF3C4BH   FF3C97H   00004DH   BYTE   INSEG    CODE           ?PR?SETCHANNEL6MODE?LCDAPP
FF3C98H   FF3CE4H   00004DH   BYTE   INSEG    CODE           ?PR?SETCHANNEL7MODE?LCDAPP
FF3CE5H   FF3D31H   00004DH   BYTE   INSEG    CODE           ?PR?SETCHANNEL8MODE?LCDAPP
FF3D32H   FF3D7EH   00004DH   BYTE   INSEG    CODE           ?PR?SETSAMPMODE?LCDAPP
FF3D7FH   FF3DCAH   00004CH   BYTE   INSEG    CODE           ?PR?PARAMCHECK?MAIN
FF3DCBH   FF3E16H   00004CH   BYTE   INSEG    CODE           ?PR?SETBKLIGHT?LCD
FF3E17H   FF3E61H   00004BH   BYTE   INSEG    CODE           ?PR?UART4_INT?UART
FF3E62H   FF3EAAH   000049H   BYTE   INSEG    CODE           ?PR?UART2_CONFIG?UART
FF3EABH   FF3EF2H   000048H   BYTE   INSEG    CODE           ?PR?HNDLCDFRAME?LCD
FF3EF3H   FF3F39H   000047H   BYTE   INSEG    CODE           ?PR?RUNLED?MAIN
FF3F3AH   FF3F80H   000047H   BYTE   INSEG    CODE           ?PR?DELAY?MAIN
FF3F81H   FF3FC7H   000047H   BYTE   INSEG    CODE           ?PR?UART1_INT?UART
FF3FC8H   FF400DH   000046H   BYTE   INSEG    CODE           ?PR?UART3SEND?UART
FF400EH   FF4053H   000046H   BYTE   INSEG    CODE           ?PR?UART4SEND?UART
FF4054H   FF4098H   000045H   BYTE   INSEG    CODE           ?PR?READPARAM?MAIN
FF4099H   FF40DDH   000045H   BYTE   INSEG    CODE           ?PR?ENTERPAGE?LCD
FF40DEH   FF4121H   000044H   BYTE   INSEG    CODE           ?PR?GET_ADC12BITRESULT?TEMPER
L251 LINKER/LOCATER V4.66.93.0                                                        05/22/2024  17:23:32  PAGE 6


FF4122H   FF4161H   000040H   BYTE   INSEG    CODE           ?PR?UART2SEND?UART
FF4162H   FF41A0H   00003FH   BYTE   INSEG    CODE           ?PR?SENDTCPFRAME?MODBUSHOST
FF41A1H   FF41DDH   00003DH   BYTE   INSEG    CODE           ?PR?TIMER0INT?MAIN
FF41DEH   FF421AH   00003DH   BYTE   INSEG    CODE           ?PR?MODBUSSAVEPARAM?MODBUSDEV
FF421BH   FF4257H   00003DH   BYTE   INSEG    CODE           ?PR?POPREG?MODBUSHOST
FF4258H   FF4292H   00003BH   BYTE   INSEG    CODE           ?PR?DEBUGINT?MAIN
FF4293H   FF42CCH   00003AH   BYTE   INSEG    CODE           ?PR?IOINIT?MAIN
FF42CDH   FF4305H   000039H   BYTE   INSEG    CODE           ?PR?FLOWTASK?MAIN
FF4306H   FF433EH   000039H   BYTE   INSEG    CODE           ?PR?UART4HND?UART
FF433FH   FF4373H   000035H   BYTE   INSEG    CODE           ?PR?UART3_CONFIG?UART
FF4374H   FF43A7H   000034H   BYTE   INSEG    CODE           ?PR?UART4_CONFIG?UART
FF43A8H   FF43D6H   00002FH   BYTE   INSEG    CODE           ?PR?MEMCMP?_?MEMCMP
FF43D7H   FF4403H   00002DH   BYTE   INSEG    CODE           ?PR?EEPROM_SECTORERASE?EEPROM
FF4404H   FF4430H   00002DH   BYTE   INSEG    CODE           ?PR?CHECKDATALEN?LCD
FF4431H   FF445DH   00002DH   BYTE   INSEG    CODE           ?PR?GETLCDTIME?LCD
FF445EH   FF4489H   00002CH   BYTE   INSEG    CODE           ?PR?SAMPCTL?LCDAPP
FF448AH   FF44B5H   00002CH   BYTE   INSEG    CODE           ?PR?SETSTARTBTN?LCDAPP
FF44B6H   FF44E0H   00002BH   BYTE   INSEG    CODE           ?PR?SENDBUFFER?MODBUSHOST
FF44E1H   FF4509H   000029H   BYTE   INSEG    CODE           ?PR?VERIFYPASSWORD?LCDAPP
FF450AH   FF4531H   000028H   BYTE   INSEG    CODE           ?PR?CHECKMODESTOP?MAIN
FF4532H   FF4559H   000028H   BYTE   INSEG    CODE           ?PR?SYSINIT?MAIN
FF455AH   FF4580H   000027H   BYTE   INSEG    CODE           ?PR?STARTBUTTON?LCDAPP
FF4581H   FF45A7H   000027H   BYTE   INSEG    CODE           ?PR?VALIDRTUFRAME?MODBUS
FF45A8H   FF45CEH   000027H   BYTE   INSEG    CODE           ?PR?SENDREADFLOW?FLOWMETER
FF45CFH   FF45F4H   000026H   BYTE   INSEG    CODE           ?PR?HIDEMODULE?LCD
FF45F5H   FF4619H   000025H   BYTE   INSEG    CODE           ?PR?UART3HND?UART
FF461AH   FF463EH   000025H   BYTE   INSEG    CODE           ?PR?MEMCPY?_?MEMCPY
FF463FH   FF4662H   000024H   BYTE   INSEG    CODE           ?PR?SHOWMODULE?LCD
FF4663H   FF4685H   000023H   BYTE   INSEG    CODE           ?PR?SENDREADFLOWCMD?MAIN
FF4686H   FF46A8H   000023H   BYTE   INSEG    CODE           ?PR?GETINPUTTIME?LCDAPP
FF46A9H   FF46CAH   000022H   BYTE   INSEG    CODE           ?PR?SHOWFLOW?LCDAPP
FF46CBH   FF46EBH   000021H   BYTE   INSEG    CODE           ?PR?SETREGVALUE?MODBUSDEV
FF46ECH   FF470BH   000020H   BYTE   INSEG    CODE           ?PR?GETRETCODE?LCDAPP
FF470CH   FF472AH   00001FH   BYTE   INSEG    CODE           ?PR?SETTEXTCOLOR?LCD
FF472BH   FF4749H   00001FH   BYTE   INSEG    CODE           ?PR?SHOWEMSTOP?LCDAPP
FF474AH   FF4764H   00001BH   BYTE   INSEG    CODE           ?PR?CLEARREVBUF?LCD
FF4765H   FF477EH   00001AH   BYTE   INSEG    CODE           ?PR?SHOWREMCH?LCDAPP
FF477FH   FF4798H   00001AH   BYTE   INSEG    CODE           ?PR?MEMSET?_?MEMSET
FF4799H   FF47B1H   000019H   BYTE   INSEG    CODE           ?PR?CLOSEVALVE?MAIN
FF47B2H   FF47CAH   000019H   BYTE   INSEG    CODE           ?PR?SHOWTEMP?LCDAPP
FF47CBH   FF47E2H   000018H   BYTE   INSEG    CODE           ?PR?TIMER0INIT?MAIN
FF47E3H   FF47FAH   000018H   BYTE   INSEG    CODE           ?PR?EEPROM_TRIG?EEPROM
FF47FBH   FF4812H   000018H   BYTE   INSEG    CODE           ?PR?ADC_INIT?TEMPER
FF4813H   FF4829H   000017H   BYTE   INSEG    CODE           ?PR?ERROR?MAIN
FF482AH   FF4840H   000017H   BYTE   INSEG    CODE           ?PR?HNDLCDDATA?LCD
FF4841H   FF4856H   000016H   BYTE   INSEG    CODE           ?PR?DISABLEEEPROM?EEPROM
FF4857H   FF486CH   000016H   BYTE   INSEG    CODE           ?PR?CLEARUART2BUF?UART
FF486DH   FF4882H   000016H   BYTE   INSEG    CODE           ?PR?CLEARUART3BUF?UART
FF4883H   FF4898H   000016H   BYTE   INSEG    CODE           ?PR?UART1HND?UART
FF4899H   FF48AAH   000012H   BYTE   INSEG    CODE           ?PR?CLEARUART1BUF?UART
FF48ABH   FF48BCH   000012H   BYTE   INSEG    CODE           ?PR?CLEARUART4BUF?UART
FF48BDH   FF48CAH   00000EH   BYTE   INSEG    CODE           ?PR?STRLEN?_?STRLEN
FF48CBH   FF48D6H   00000CH   BYTE   INSEG    CODE           ?PR?DEBUGMSG?MAIN
FF48D7H   FF48DCH   000006H   BYTE   INSEG    CODE           ?PR?CLOSEPUMP?MAIN
FF48DDH   FF48E1H   000005H   BYTE   INSEG    CODE           ?PR?SWWORD?LCD
FF48E2H   FF48E6H   000005H   BYTE   INSEG    CODE           ?PR?REGSW?MODBUS
FF48E7H   FF48EAH   000004H   BYTE   INSEG    CODE           ?PR?SAVEPARAM?MAIN
FF48EBH   FF48EEH   000004H   BYTE   INSEG    CODE           ?PR?REMCTLTASK?MAIN
FF48EFH   FF48F2H   000004H   BYTE   UNIT     CONST          ?CO?PRINTF
FF48F3H   FF4C0CH   00031AH   BYTE   UNIT     HCONST         ?C_INITHDATA
FF4C0DH   FF4D61H   000155H   BYTE   UNIT     HCONST         ?C_INITEDATA
FF4D62H   FF4DDFH   00007EH   BYTE   UNIT     HCONST         ?HC?LCDAPP
FF4DE0H   FF4E00H   000021H   BYTE   UNIT     HCONST         ?HC?LCD
FF4E01H   FF4E0EH   00000EH   BYTE   UNIT     HCONST         ?HC?MAIN
FF4E0FH   FF4E16H   000008H   BYTE   UNIT     HCONST         ?HC?MODBUS
L251 LINKER/LOCATER V4.66.93.0                                                        05/22/2024  17:23:32  PAGE 7


FF4E17H   FF4E1CH   000006H   BYTE   UNIT     HCONST         ?HC?MODBUSDEV
FF4E1DH   FF4E22H   000006H   BYTE   UNIT     HCONST         ?HC?MODBUSHOST

* * * * * * * * *   R E M O V E D     S E G M E N T S   * * * * * * * *
   *DEL*:           00003DH   BYTE   INSEG    CODE           ?PR?SENSORINIT?MAIN
   *DEL*:           000006H   BYTE   INSEG    CODE           ?PR?POWEROFF?MAIN
   *DEL*:           000043H   BYTE   INSEG    CODE           ?PR?GETINPUT?MAIN
   *DEL*:           000018H   BYTE   INSEG    CODE           ?PR?DELAY_MS?MAIN
   *DEL*:           000040H   BYTE   INSEG    CODE           ?PR?UART1SEND?UART
   *DEL*:           000011H   BYTE   INSEG    CODE           ?PR?PUTCHAR?UART
   *DEL*:           000048H   BYTE   INSEG    CODE           ?PR?SETCHCOUNT?LCDAPP
   *DEL*:           000038H   BYTE   INSEG    CODE           ?PR?VALIDTCPFRAME?MODBUS
   *DEL*:           00006DH   BYTE   INSEG    CODE           ?PR?SWENDIAN?MODBUS
   *DEL*:           000023H   BYTE   INSEG    CODE           ?PR?BYTESTODWORD?MODBUS
   *DEL*:           000038H   BYTE   INSEG    CODE           ?PR?BYTESTOFLOAT?MODBUS
   *DEL*:           000038H   BYTE   INSEG    CODE           ?PR?FLOATTOBYTES?MODBUS
   *DEL*:           000023H   BYTE   INSEG    CODE           ?PR?BYTESTOWORD?MODBUS
   *DEL*:           00002BH   BYTE   INSEG    CODE           ?PR?SWENDIANW?MODBUS
   *DEL*:           000051H   BYTE   INSEG    CODE           ?PR?BYTECONVERT?MODBUS
   *DEL*:           000031H   BYTE   INSEG    CODE           ?PR?PACKAGEDWORDVALUE?MODBUSDEV
   *DEL*:           000042H   BYTE   INSEG    CODE           ?PR?PACKAGEFLOATVALUE?MODBUSDEV
   *DEL*:           000049H   BYTE   INSEG    CODE           ?PR?PACKAGEWORDVALUE?MODBUSDEV



OVERLAY MAP OF MODULE:   .\obj\PileCore (ISR)


FUNCTION/MODULE                  EDATA_GROUP
--> CALLED FUNCTION/MODULE       START  STOP
============================================
Timer0Int/main                   ----- -----

*** NEW ROOT *******************

UART1_int/uart                   ----- -----

*** NEW ROOT *******************

UART2_int/uart                   ----- -----

*** NEW ROOT *******************

UART3_int/uart                   ----- -----

*** NEW ROOT *******************

UART4_int/uart                   ----- -----

*** NEW ROOT *******************

?C_C51STARTUP                    ----- -----

*** NEW ROOT *******************

?C_C51STARTUP?3                  ----- -----
  +--> main/main

main/main                        ----- -----
  +--> SysInit/main
  +--> IoInit/main
  +--> LedInit/main
  +--> Delay/main
  +--> Timer0Init/main
  +--> Adc_Init/Temper
L251 LINKER/LOCATER V4.66.93.0                                                        05/22/2024  17:23:32  PAGE 8


  +--> UART1_config/uart
  +--> UART2_config/uart
  +--> UART3_config/uart
  +--> UART4_config/uart
  +--> ClearUart1Buf/uart
  +--> ClearUart2Buf/uart
  +--> ClearUart3Buf/uart
  +--> ClearUart4Buf/uart
  +--> ReadParam/main
  +--> SyncModBusDev/main
  +--> InitLcd/main
  +--> TimerTask/main
  +--> HndInput/main
  +--> Uart1Hnd/uart
  +--> Uart2Hnd/uart
  +--> Uart3Hnd/uart
  +--> FlowTask/main
  +--> Uart4Hnd/uart
  +--> RemCtlTask/main

SysInit/main                     ----- -----

IoInit/main                      ----- -----

LedInit/main                     ----- -----
  +--> CloseValve/main

CloseValve/main                  ----- -----

Delay/main                       ----- -----

Timer0Init/main                  ----- -----

Adc_Init/Temper                  ----- -----

UART1_config/uart                ----- -----

UART2_config/uart                ----- -----

UART3_config/uart                ----- -----

UART4_config/uart                ----- -----

ClearUart1Buf/uart               ----- -----
  +--> memset?_/memset

memset?_/memset                  ----- -----

ClearUart2Buf/uart               ----- -----
  +--> memset?_/memset

ClearUart3Buf/uart               ----- -----
  +--> memset?_/memset

ClearUart4Buf/uart               ----- -----
  +--> memset?_/memset

ReadParam/main                   ----- -----
  +--> EEPROM_read/EepRom
  +--> ParamCheck/main
  +--> ParamDef/main
  +--> WriteParam/main

EEPROM_read/EepRom               ----- -----
  +--> EEPROM_Trig/EepRom
L251 LINKER/LOCATER V4.66.93.0                                                        05/22/2024  17:23:32  PAGE 9


  +--> DisableEEPROM/EepRom

EEPROM_Trig/EepRom               ----- -----

DisableEEPROM/EepRom             ----- -----

ParamCheck/main                  ----- -----

ParamDef/main                    ----- -----

WriteParam/main                  ----- -----
  +--> EEPROM_SectorErase/EepRom
  +--> ParamCheck/main
  +--> EEPROM_write/EepRom
  +--> Error/main

EEPROM_SectorErase/EepRom        ----- -----
  +--> EEPROM_Trig/EepRom
  +--> DisableEEPROM/EepRom

EEPROM_write/EepRom              ----- -----
  +--> EEPROM_Trig/EepRom
  +--> DisableEEPROM/EepRom

Error/main                       ----- -----
  +--> Delay/main

SyncModBusDev/main               ----- -----
  +--> memset?_/memset
  +--> GetAlarm/main

GetAlarm/main                    ----- -----

InitLcd/main                     ----- -----
  +--> memset?_/memset
  +--> ModeHint/LcdApp
  +--> Delay/main
  +--> HideModule/Lcd
  +--> UpdataUI/main
  +--> SendParam/LcdApp
  +--> SendChannelParam/LcdApp
  +--> SetBkLight/Lcd
  +--> ShowDevInfo/LcdApp

ModeHint/LcdApp                  ----- -----
  +--> memset?_/memset
  +--> SPRINTF/SPRINTF
  +--> LcdCmd/Lcd

SPRINTF/SPRINTF                  0231H 0258H
  +--> OUT/SPRINTF

OUT/SPRINTF                      ----- -----
  +--> PUTCH/SPRINTF

PUTCH/SPRINTF                    ----- -----

LcdCmd/Lcd                       ----- -----
  +--> memset?_/memset
  +--> SwWord/Lcd
  +--> memcpy?_/memcpy
  +--> DebugMsg/main
  +--> Uart2Send/uart

SwWord/Lcd                       ----- -----
L251 LINKER/LOCATER V4.66.93.0                                                        05/22/2024  17:23:32  PAGE 10



memcpy?_/memcpy                  ----- -----

DebugMsg/main                    ----- -----
  +--> strlen?_/STRLEN

strlen?_/STRLEN                  ----- -----

Uart2Send/uart                   ----- -----

HideModule/Lcd                   ----- -----
  +--> LcdCmd/Lcd

UpdataUI/main                    ----- -----
  +--> ShowStatus/LcdApp
  +--> Delay/main
  +--> StatusColor/LcdApp

ShowStatus/LcdApp                ----- -----
  +--> memset?_/memset
  +--> SPRINTF/SPRINTF
  +--> LcdCmd/Lcd

StatusColor/LcdApp               ----- -----
  +--> Delay/main
  +--> SwWord/Lcd
  +--> SetTextColor/Lcd

SetTextColor/Lcd                 ----- -----
  +--> LcdCmd/Lcd

SendParam/LcdApp                 ----- -----
  +--> SwWord/Lcd
  +--> memset?_/memset
  +--> SPRINTF/SPRINTF
  +--> LcdCmd/Lcd

SendChannelParam/LcdApp          ----- -----
  +--> memset?_/memset
  +--> SwWord/Lcd
  +--> SPRINTF/SPRINTF
  +--> LcdCmd/Lcd

SetBkLight/Lcd                   ----- -----
  +--> PopWord/Lcd
  +--> LcdCmd/Lcd

PopWord/Lcd                      ----- -----
  +--> memcpy?_/memcpy
  +--> SwWord/Lcd

ShowDevInfo/LcdApp               ----- -----
  +--> memset?_/memset
  +--> SPRINTF/SPRINTF
  +--> LcdCmd/Lcd

TimerTask/main                   ----- -----
  +--> Task1s/main
  +--> RunLed/main
  +--> IoCtlTask/main
  +--> GetValve/main
  +--> ShowRemCh/LcdApp

Task1s/main                      ----- -----
  +--> ADC_Temp/Temper
L251 LINKER/LOCATER V4.66.93.0                                                        05/22/2024  17:23:32  PAGE 11


  +--> GetRetCode/LcdApp
  +--> DevRun/main

ADC_Temp/Temper                  ----- -----
  +--> Get_ADC12bitResult/Temper
  +--> Get_Temperature/Temper

Get_ADC12bitResult/Temper        ----- -----

Get_Temperature/Temper           ----- -----

GetRetCode/LcdApp                ----- -----
  +--> LcdCmd/Lcd

DevRun/main                      ----- -----
  +--> GetFlow/main
  +--> ShowFlow/LcdApp
  +--> RunCheck/main
  +--> CheckAlarm/main

GetFlow/main                     ----- -----
  +--> SwWord/Lcd
  +--> SwDWord/Lcd

SwDWord/Lcd                      ----- -----

ShowFlow/LcdApp                  ----- -----
  +--> SetRunTime/LcdApp
  +--> LcdCmd/Lcd

SetRunTime/LcdApp                ----- -----
  +--> ?C?ULIDIV/?C?ULDIV
  +--> memset?_/memset
  +--> SPRINTF/SPRINTF

?C?ULIDIV/?C?ULDIV               ----- -----

RunCheck/main                    ----- -----
  +--> TimingMode/main
  +--> VolumeMode/main
  +--> Channel_ManMode/main
  +--> SendParam/LcdApp

TimingMode/main                  ----- -----
  +--> CheckModeStop/main

CheckModeStop/main               ----- -----
  +--> StopSamp/main

StopSamp/main                    ----- -----
  +--> ClosePump/main
  +--> memset?_/memset
  +--> SetStartBtn/LcdApp
  +--> ShowModule/Lcd
  +--> SaveParam/main

ClosePump/main                   ----- -----

SetStartBtn/LcdApp               ----- -----
  +--> LcdCmd/Lcd

ShowModule/Lcd                   ----- -----
  +--> SwWord/Lcd
  +--> LcdCmd/Lcd

L251 LINKER/LOCATER V4.66.93.0                                                        05/22/2024  17:23:32  PAGE 12


SaveParam/main                   ----- -----
  +--> WriteParam/main

VolumeMode/main                  ----- -----
  +--> CheckModeStop/main

Channel_ManMode/main             ----- -----
  +--> CheckModeStop/main

CheckAlarm/main                  ----- -----
  +--> memcmp?_/memcmp
  +--> Delay/main
  +--> ShowStatus/LcdApp
  +--> AbnorAlaerm/main
  +--> StatusColor/LcdApp
  +--> memcpy?_/memcpy

memcmp?_/memcmp                  ----- -----

AbnorAlaerm/main                 ----- -----

RunLed/main                      ----- -----

IoCtlTask/main                   ----- -----
  +--> OutFlash/main
  +--> OutCtl/main

OutFlash/main                    ----- -----
  +--> OutCtl/main

OutCtl/main                      ----- -----

GetValve/main                    ----- -----
  +--> CheckValve/main

CheckValve/main                  ----- -----

ShowRemCh/LcdApp                 ----- -----
  +--> LcdCmd/Lcd

HndInput/main                    ----- -----
  +--> Delay/main
  +--> StopSamp/main
  +--> ShowEmStop/LcdApp

ShowEmStop/LcdApp                ----- -----
  +--> LcdCmd/Lcd

Uart1Hnd/uart                    ----- -----
  +--> ClearUart1Buf/uart

Uart2Hnd/uart                    ----- -----
  +--> DumpCmd/main
  +--> memcpy?_/memcpy
  +--> ClearUart2Buf/uart
  +--> HndLcdData/Lcd

DumpCmd/main                     ----- -----
  +--> memset?_/memset
  +--> strlen?_/STRLEN
  +--> SPRINTF/SPRINTF
  +--> DebugMsg/main

HndLcdData/Lcd                   ----- -----
  +--> HndLcdFrame/Lcd
L251 LINKER/LOCATER V4.66.93.0                                                        05/22/2024  17:23:32  PAGE 13


  +--> ValidLcdFrame/Lcd
  +--> ClearRevBuf/Lcd

HndLcdFrame/Lcd                  ----- -----
  +--> ReadReg/LcdApp
  +--> WriteReg/LcdApp

ReadReg/LcdApp                   ----- -----
  +--> SwWord/Lcd
  +--> DebugInt/main
  +--> StartButton/LcdApp
  +--> VerifyPassWord/LcdApp
  +--> SampCtl/LcdApp
  +--> ReturnStart/LcdApp
  +--> GetLcdTime/Lcd
  +--> HideModule/Lcd
  +--> PopWord/Lcd
  +--> SetBkLight/Lcd
  +--> SetSampMode/LcdApp
  +--> SetChannel1Mode/LcdApp
  +--> SetChannel2Mode/LcdApp
  +--> SetChannel3Mode/LcdApp
  +--> SetChannel4Mode/LcdApp
  +--> SetChannel5Mode/LcdApp
  +--> SetChannel6Mode/LcdApp
  +--> SetChannel7Mode/LcdApp
  +--> SetChannel8Mode/LcdApp
  +--> ModeHint/LcdApp
  +--> UpdataUI/main
  +--> SaveParam/main
  +--> ShowDevInfo/LcdApp
  +--> GetInputTime/LcdApp
  +--> SetLcdTime/Lcd
  +--> SetCurTime/LcdApp
  +--> ShowTemp/LcdApp

DebugInt/main                    ----- -----
  +--> memset?_/memset
  +--> SPRINTF/SPRINTF
  +--> DebugMsg/main

StartButton/LcdApp               ----- -----
  +--> CheckDataLen/Lcd
  +--> PopWord/Lcd
  +--> StartSamp/main

CheckDataLen/Lcd                 ----- -----

StartSamp/main                   ----- -----
  +--> memset?_/memset
  +--> OpenPump/main
  +--> memcpy?_/memcpy
  +--> ShowStatus/LcdApp
  +--> StatusColor/LcdApp
  +--> SetStartBtn/LcdApp

OpenPump/main                    ----- -----

VerifyPassWord/LcdApp            ----- -----
  +--> CheckDataLen/Lcd
  +--> PopWord/Lcd
  +--> EnterPage/Lcd

EnterPage/Lcd                    ----- -----
  +--> memcpy?_/memcpy
L251 LINKER/LOCATER V4.66.93.0                                                        05/22/2024  17:23:32  PAGE 14


  +--> LcdCmd/Lcd

SampCtl/LcdApp                   ----- -----
  +--> CheckDataLen/Lcd
  +--> PopWord/Lcd
  +--> StartSamp/main
  +--> StopSamp/main
  +--> HideModule/Lcd

ReturnStart/LcdApp               ----- -----
  +--> CheckDataLen/Lcd
  +--> PopWord/Lcd
  +--> StopSamp/main
  +--> Delay/main
  +--> memset?_/memset
  +--> LcdCmd/Lcd
  +--> EnterPage/Lcd
  +--> StartSamp/main

GetLcdTime/Lcd                   ----- -----
  +--> DebugMsg/main
  +--> LcdCmd/Lcd

SetSampMode/LcdApp               ----- -----
  +--> PopWord/Lcd
  +--> memset?_/memset
  +--> SPRINTF/SPRINTF
  +--> LcdCmd/Lcd

SetChannel1Mode/LcdApp           ----- -----
  +--> PopWord/Lcd
  +--> memset?_/memset
  +--> SPRINTF/SPRINTF
  +--> LcdCmd/Lcd

SetChannel2Mode/LcdApp           ----- -----
  +--> PopWord/Lcd
  +--> memset?_/memset
  +--> SPRINTF/SPRINTF
  +--> LcdCmd/Lcd

SetChannel3Mode/LcdApp           ----- -----
  +--> PopWord/Lcd
  +--> memset?_/memset
  +--> SPRINTF/SPRINTF
  +--> LcdCmd/Lcd

SetChannel4Mode/LcdApp           ----- -----
  +--> PopWord/Lcd
  +--> memset?_/memset
  +--> SPRINTF/SPRINTF
  +--> LcdCmd/Lcd

SetChannel5Mode/LcdApp           ----- -----
  +--> PopWord/Lcd
  +--> memset?_/memset
  +--> SPRINTF/SPRINTF
  +--> LcdCmd/Lcd

SetChannel6Mode/LcdApp           ----- -----
  +--> PopWord/Lcd
  +--> memset?_/memset
  +--> SPRINTF/SPRINTF
  +--> LcdCmd/Lcd

L251 LINKER/LOCATER V4.66.93.0                                                        05/22/2024  17:23:32  PAGE 15


SetChannel7Mode/LcdApp           ----- -----
  +--> PopWord/Lcd
  +--> memset?_/memset
  +--> SPRINTF/SPRINTF
  +--> LcdCmd/Lcd

SetChannel8Mode/LcdApp           ----- -----
  +--> PopWord/Lcd
  +--> memset?_/memset
  +--> SPRINTF/SPRINTF
  +--> LcdCmd/Lcd

GetInputTime/LcdApp              ----- -----
  +--> LcdCmd/Lcd

SetLcdTime/Lcd                   ----- -----
  +--> CheckDataLen/Lcd
  +--> PopWord/Lcd
  +--> LcdCmd/Lcd

SetCurTime/LcdApp                ----- -----
  +--> CheckDataLen/Lcd
  +--> memcpy?_/memcpy
  +--> SwWord/Lcd
  +--> LcdCmd/Lcd

ShowTemp/LcdApp                  ----- -----
  +--> LcdCmd/Lcd

WriteReg/LcdApp                  ----- -----

ValidLcdFrame/Lcd                ----- -----
  +--> SwWord/Lcd

ClearRevBuf/Lcd                  ----- -----
  +--> memset?_/memset

Uart3Hnd/uart                    ----- -----
  +--> FlowMeterAck/FlowMeter
  +--> ClearUart3Buf/uart

FlowMeterAck/FlowMeter           ----- -----
  +--> ValidRtuFrame/ModBus
  +--> memset?_/memset
  +--> memcpy?_/memcpy
  +--> ReadFlow/FlowMeter

ValidRtuFrame/ModBus             ----- -----
  +--> CRC16Calc/ModBus

CRC16Calc/ModBus                 ----- -----

ReadFlow/FlowMeter               ----- -----
  +--> PopReg/ModBusHost

PopReg/ModBusHost                ----- -----
  +--> memcpy?_/memcpy
  +--> RegSw/ModBus

RegSw/ModBus                     ----- -----

FlowTask/main                    ----- -----
  +--> SendReadFlowCmd/main

SendReadFlowCmd/main             ----- -----
L251 LINKER/LOCATER V4.66.93.0                                                        05/22/2024  17:23:32  PAGE 16


  +--> SendReadFlow/FlowMeter

SendReadFlow/FlowMeter           ----- -----
  +--> HostSendCmd/ModBusHost

HostSendCmd/ModBusHost           ----- -----
  +--> memset?_/memset
  +--> RegSw/ModBus
  +--> memcpy?_/memcpy
  +--> CRC16Calc/ModBus
  +--> SendBuffer/ModBusHost

SendBuffer/ModBusHost            ----- -----
  +--> SendTcpFrame/ModBusHost
  +--> Uart3Send/uart

SendTcpFrame/ModBusHost          ----- -----
  +--> memcpy?_/memcpy

Uart3Send/uart                   ----- -----

Uart4Hnd/uart                    ----- -----
  +--> HndModBusRecv/ModBusDev
  +--> ClearUart4Buf/uart

HndModBusRecv/ModBusDev          ----- -----
  +--> ValidRtuFrame/ModBus
  +--> memset?_/memset
  +--> memcpy?_/memcpy
  +--> ReadAck/ModBusDev
  +--> SetRegValue/ModBusDev

ReadAck/ModBusDev                ----- -----
  +--> memset?_/memset
  +--> PackageReg/ModBusDev
  +--> CRC16Calc/ModBus
  +--> Uart4Send/uart

PackageReg/ModBusDev             ----- -----
  +--> SyncModBusDev/main
  +--> memcpy?_/memcpy

Uart4Send/uart                   ----- -----

SetRegValue/ModBusDev            ----- -----
  +--> WriteRegValue/ModBusDev
  +--> WriteAck/ModBusDev

WriteRegValue/ModBusDev          ----- -----
  +--> memcpy?_/memcpy
  +--> ModBusSaveParam/ModBusDev

ModBusSaveParam/ModBusDev        ----- -----
  +--> WriteParam/main

WriteAck/ModBusDev               ----- -----
  +--> memset?_/memset
  +--> RegSw/ModBus
  +--> CRC16Calc/ModBus
  +--> Uart4Send/uart

RemCtlTask/main                  ----- -----
  +--> RemPageCtl/main

RemPageCtl/main                  ----- -----
L251 LINKER/LOCATER V4.66.93.0                                                        05/22/2024  17:23:32  PAGE 17


  +--> EnterPage/Lcd
  +--> StartSamp/main
  +--> memset?_/memset
  +--> StopSamp/main
  +--> SendParam/LcdApp
  +--> ModeHint/LcdApp
  +--> ClosePump/main

*** NEW ROOT *******************

?C_C51STARTUP?2                  ----- -----



PUBLIC SYMBOLS OF MODULE:  .\obj\PileCore (ISR)


      VALUE       CLASS    TYPE      PUBLIC SYMBOL NAME
      =================================================
      00FF0A84H   CODE     ---       ?C?BMOVENP
      00FF0A82H   CODE     ---       ?C?BMOVENP8
      00FF039AH   CODE     NEAR LAB  ?C?CASTF
      000000FFH   NUMBER   ---       ?C?CODESEG
      00FF0367H   CODE     NEAR LAB  ?C?FCASTC
      00FF0362H   CODE     NEAR LAB  ?C?FCASTI
      00FF035DH   CODE     NEAR LAB  ?C?FCASTL
      00FF013EH   CODE     ---       ?C?FPADD
      00FF0319H   CODE     ---       ?C?FPCMP
      00FF0317H   CODE     ---       ?C?FPCMP3
      00FF0892H   CODE     ---       ?C?FPCONVERT
      00FF0296H   CODE     ---       ?C?FPDIV
      00FF03F7H   CODE     ---       ?C?FPGETOPN2
      00FF01F6H   CODE     ---       ?C?FPMUL
      00FF0434H   CODE     ---       ?C?FPNANRESULT
      00FF043CH   CODE     ---       ?C?FPOVERFLOW
      00FF0410H   CODE     ---       ?C?FPRESULT
      00FF0426H   CODE     ---       ?C?FPRESULT2
      00FF094AH   CODE     ---       ?C?FPROUND
      00FF013BH   CODE     ---       ?C?FPSUB
      00FF0439H   CODE     ---       ?C?FPUNDERFLOW
      00FF09BDH   CODE     ---       ?C?FTNPWR
      00FF347DH   CODE     ---       ?C?INITEDATA
      00FF4D60H   HCONST   WORD      ?C?INITEDATA_END
      00FF34A6H   CODE     ---       ?C?INITHDATA
      00FF4C0BH   HCONST   WORD      ?C?INITHDATA_END
      00FF0A26H   CODE     ---       ?C?LIMUL
      00FF0475H   CODE     ---       ?C?PRNFMT
      00FF09F4H   CODE     ---       ?C?SIDIV
      00FF0000H   CODE     ---       ?C?STARTUP
      00FF0A31H   CODE     NEAR LAB  ?C?ULDIV
      00FF0A2FH   CODE     NEAR LAB  ?C?ULIDIV
      00000001H   NUMBER   ---       ?C?XDATASEG
      00FF0000H   CODE     ---       ?C_STARTUP
      0000030DH   EDATA    BYTE      ?EEPROM_read?BYTE
      00000287H   EDATA    BYTE      ?EEPROM_write?BYTE
      000002AAH   EDATA    BYTE      ?HostSendCmd?BYTE
      00000259H   EDATA    ---       ?sprintf?BYTE
      00FF2FFDH   CODE     ---       AbnorAlaerm
*SFR* 000000BCH   DATA     BYTE      ADC_CONTR
*SFR* 000000BCH.5 DATA     BIT       ADC_FLAG
      00FF47FBH   CODE     ---       Adc_Init
*SFR* 000000BDH   DATA     BYTE      ADC_RES
*SFR* 000000BEH   DATA     BYTE      ADC_RESL
      00FF388FH   CODE     ---       ADC_Temp
*SFR* 000000DEH   DATA     BYTE      ADCCFG
L251 LINKER/LOCATER V4.66.93.0                                                        05/22/2024  17:23:32  PAGE 18


*SFR* 000000EFH   DATA     BYTE      AUXINTIF
*SFR* 0000008EH   DATA     BYTE      AUXR
*SFR* 00000097H   DATA     BYTE      AUXR2
      00000020H.0 BIT      BIT       B_TX1_Busy
      00000020H.1 BIT      BIT       B_TX2_Busy
      00000020H.2 BIT      BIT       B_TX3_Busy
      00000020H.3 BIT      BIT       B_TX4_Busy
*DEL*:00000000H   CODE     ---       ByteConvert
*DEL*:00000000H   CODE     ---       BytesToDWord
*DEL*:00000000H   CODE     ---       BytesToFloat
*DEL*:00000000H   CODE     ---       BytesToWord
*SFR* 000000F1H   DATA     BYTE      CANICR
      00FF1A8CH   CODE     ---       Channel_ManMode
      000002A1H   EDATA    ---       ChannelAlarm
      000001E1H   EDATA    ---       ChannelError
      0001029BH   XDATA    ---       ChannelParam
      000103F3H   XDATA    ---       ChannelStatus
      000001FFH   EDATA    BYTE      ChannelStop
      00FF0F44H   CODE     ---       CheckAlarm
      00FF4404H   CODE     ---       CheckDataLen
      00FF450AH   CODE     ---       CheckModeStop
      00FF22D2H   CODE     ---       CheckValve
      000001FCH   EDATA    BYTE      ChNum
      00FF474AH   CODE     ---       ClearRevBuf
      00FF4899H   CODE     ---       ClearUart1Buf
      00FF4857H   CODE     ---       ClearUart2Buf
      00FF486DH   CODE     ---       ClearUart3Buf
      00FF48ABH   CODE     ---       ClearUart4Buf
      00FF48D7H   CODE     ---       ClosePump
      00FF4799H   CODE     ---       CloseValve
*SFR* 000000C1H.4 DATA     BIT       CLR_WDT
*SFR* 000000E6H   DATA     BYTE      CMPCR1
*SFR* 000000E7H   DATA     BYTE      CMPCR2
      00FF2A0FH   CODE     ---       CRC16Calc
      00000410H   EDATA    BYTE      DataIndex
      00FF4258H   CODE     ---       DebugInt
      00FF48CBH   CODE     ---       DebugMsg
      00FF3F3AH   CODE     ---       Delay
*DEL*:00000000H   CODE     ---       delay_ms
      000001C1H   EDATA    WORD      DelayCount
      000001D0H   EDATA    BYTE      Delayflag
      0001027BH   XDATA    ---       DevInfo
      00010108H   XDATA    ---       DevReadAck
      00FF2E37H   CODE     ---       DevRun
      0001020DH   XDATA    ---       DevWriteAck
      00FF4841H   CODE     ---       DisableEEPROM
      00FF2D8FH   CODE     ---       DumpCmd
*SFR* 000000A8H.7 DATA     BIT       EA
*SFR* 000000BAH.7 DATA     BIT       EAXFR
      00FF34DAH   CODE     ---       EEPROM_read
      00FF43D7H   CODE     ---       EEPROM_SectorErase
      00FF47E3H   CODE     ---       EEPROM_Trig
      00FF21BDH   CODE     ---       EEPROM_write
      00FF4099H   CODE     ---       EnterPage
      00FF4813H   CODE     ---       Error
*SFR* 000000A8H.4 DATA     BIT       ES
*SFR* 000000AFH.0 DATA     BIT       ES2
*SFR* 000000AFH.3 DATA     BIT       ES3
*SFR* 000000AFH.4 DATA     BIT       ES4
*SFR* 000000A8H.1 DATA     BIT       ET0
*SFR* 000000A8H.3 DATA     BIT       ET1
*SFR* 000000AFH.2 DATA     BIT       ET2
*SFR* 000000D0H.5 DATA     BIT       F0
*DEL*:00000000H   CODE     ---       FloatToBytes
      00FF393AH   CODE     ---       FlowMeterAck
L251 LINKER/LOCATER V4.66.93.0                                                        05/22/2024  17:23:32  PAGE 19


      00FF42CDH   CODE     ---       FlowTask
      000001D4H   EDATA    BYTE      g_Key_Confrom
      000001FEH   EDATA    BYTE      g_Key_Input
      000001FDH   EDATA    BYTE      g_Key_Power
      000001EFH   EDATA    ---       g_Output
      000001C3H   EDATA    ---       g_OutStatus
      00FF40DEH   CODE     ---       Get_ADC12bitResult
      00FF2F71H   CODE     ---       Get_Temperature
      00FF3546H   CODE     ---       GetAlarm
      00FF1602H   CODE     ---       GetFlow
*DEL*:00000000H   CODE     ---       GetInput
      00FF4686H   CODE     ---       GetInputTime
      00FF4431H   CODE     ---       GetLcdTime
      00FF46ECH   CODE     ---       GetRetCode
      00FF1E55H   CODE     ---       GetValve
      000001D5H   EDATA    WORD      gRunTime
      00FF45CFH   CODE     ---       HideModule
      00000299H   EDATA    ---       HisAlarm
      00FF372DH   CODE     ---       HndInput
      00FF482AH   CODE     ---       HndLcdData
      00FF3EABH   CODE     ---       HndLcdFrame
      00FF36D2H   CODE     ---       HndModBusRecv
      0000040AH   EDATA    WORD      HostBufIndex
      00FF1D21H   CODE     ---       HostSendCmd
      0001048BH   XDATA    ---       HostSendFrame
*SFR* 000000F6H   DATA     BYTE      IAP_ADDRE
*SFR* 000000C3H   DATA     BYTE      IAP_ADDRH
*SFR* 000000C4H   DATA     BYTE      IAP_ADDRL
*SFR* 000000C5H   DATA     BYTE      IAP_CMD
*SFR* 000000C7H   DATA     BYTE      IAP_CONTR
*SFR* 000000C2H   DATA     BYTE      IAP_DATA
*SFR* 000000F5H   DATA     BYTE      IAP_TPS
*SFR* 000000C6H   DATA     BYTE      IAP_TRIG
*SFR* 000000A8H   DATA     BYTE      IE
*SFR* 000000AFH   DATA     BYTE      IE2
      00FF3213H   CODE     ---       InitLcd
      00000204H   EDATA    BYTE      Input_Status
*SFR* 0000008FH   DATA     BYTE      INTCLKO
      00FF398FH   CODE     ---       IoCtlTask
      00FF4293H   CODE     ---       IoInit
*SFR* 000000B8H   DATA     BYTE      IP
*SFR* 000000B5H   DATA     BYTE      IP2
*SFR* 000000B6H   DATA     BYTE      IP2H
*SFR* 000000DFH   DATA     BYTE      IP3
*SFR* 000000EEH   DATA     BYTE      IP3H
*SFR* 000000B7H   DATA     BYTE      IPH
*SFR* 0000009DH   DATA     BYTE      IRCBAND
      000001D8H   EDATA    BYTE      LcdBusyFlag
      00000200H   EDATA    WORD      LcdBusyTim
      00FF2B80H   CODE     ---       LcdCmd
      0000040FH   EDATA    BYTE      LcdFrameloc
      00FF000EH   CODE     ---       LedInit
*SFR* 000000F9H   DATA     BYTE      LINICR
      00FF0096H   CODE     ---       main
      0000040CH   EDATA    ---       MbId
      00FF43A8H   CODE     ---       memcmp?_
      00FF461AH   CODE     ---       memcpy?_
      00FF477FH   CODE     ---       memset?_
      00010245H   XDATA    ---       ModBusInfo
      00010215H   XDATA    ---       ModBusParam
      00FF41DEH   CODE     ---       ModBusSaveParam
      00010231H   XDATA    ---       ModBusStatus
      00FF3086H   CODE     ---       ModeHint
      00FF3797H   CODE     ---       ModeText
      000002A9H   EDATA    BYTE      NeedGetRet
L251 LINKER/LOCATER V4.66.93.0                                                        05/22/2024  17:23:32  PAGE 20


      00FF0003H   CODE     ---       OpenPump
      00FF191AH   CODE     ---       OutCtl
      00FF3671H   CODE     ---       OutFlash
*SFR* 00000080H   DATA     BYTE      P0
*SFR* 00000094H   DATA     BYTE      P0M0
*SFR* 00000093H   DATA     BYTE      P0M1
*SFR* 00000090H   DATA     BYTE      P1
*SFR* 00000092H   DATA     BYTE      P1M0
*SFR* 00000091H   DATA     BYTE      P1M1
*SFR* 000000A0H   DATA     BYTE      P2
*SFR* 00000096H   DATA     BYTE      P2M0
*SFR* 00000095H   DATA     BYTE      P2M1
*SFR* 000000B0H   DATA     BYTE      P3
*SFR* 000000B2H   DATA     BYTE      P3M0
*SFR* 000000B1H   DATA     BYTE      P3M1
*SFR* 000000C0H   DATA     BYTE      P4
*SFR* 000000B4H   DATA     BYTE      P4M0
*SFR* 000000B3H   DATA     BYTE      P4M1
*SFR* 000000C8H   DATA     BYTE      P5
*SFR* 000000CAH   DATA     BYTE      P5M0
*SFR* 000000C9H   DATA     BYTE      P5M1
*SFR* 000000E8H   DATA     BYTE      P6
*SFR* 000000CCH   DATA     BYTE      P6M0
*SFR* 000000CBH   DATA     BYTE      P6M1
*SFR* 000000F8H   DATA     BYTE      P7
*SFR* 000000E2H   DATA     BYTE      P7M0
*SFR* 000000E1H   DATA     BYTE      P7M1
*SFR* 000000A2H   DATA     BYTE      P_SW1
*SFR* 000000BAH   DATA     BYTE      P_SW2
*SFR* 000000BBH   DATA     BYTE      P_SW3
*DEL*:00000000H   CODE     ---       PackageDWordValue
*DEL*:00000000H   CODE     ---       PackageFloatValue
      00FF337FH   CODE     ---       PackageReg
*DEL*:00000000H   CODE     ---       PackageWordValue
      00000203H   EDATA    BYTE      PageSwitch
      00FF3D7FH   CODE     ---       ParamCheck
      00FF287AH   CODE     ---       ParamDef
*SFR* 00000087H   DATA     BYTE      PCON
      00FF421BH   CODE     ---       PopReg
      00FF38E5H   CODE     ---       PopWord
*DEL*:00000000H   CODE     ---       PowerOff
*SFR* 000000B8H.4 DATA     BIT       PS
*SFR* 000000B5H.0 DATA     BIT       PS2
*SFR* 000000B6H.0 DATA     BIT       PS2H
*SFR* 000000DFH.0 DATA     BIT       PS3
*SFR* 000000EEH.0 DATA     BIT       PS3H
*SFR* 000000DFH.1 DATA     BIT       PS4
*SFR* 000000EEH.1 DATA     BIT       PS4H
*SFR* 000000B7H.4 DATA     BIT       PSH
*SFR* 000000D0H   DATA     BYTE      PSW
*SFR* 000000B8H.1 DATA     BIT       PT0
*SFR* 000000B7H.1 DATA     BIT       PT0H
*DEL*:00000000H   CODE     ---       putchar
      00FF27A6H   CODE     ---       ReadAck
      00010593H   XDATA    ---       ReadAckFrame
      00FF26CCH   CODE     ---       ReadFlow
      00FF4054H   CODE     ---       ReadParam
      00FF0AA7H   CODE     ---       ReadReg
      00010AE1H   XDATA    ---       RealFlow
      0000040EH   EDATA    BYTE      RecLength1
      000108F0H   XDATA    ---       RecvBuf1
      00010000H   XDATA    ---       RecvFrame
      00FF48E2H   CODE     ---       RegSw
      00000202H   EDATA    BYTE      RemAckOut
      000001D9H   EDATA    WORD      RemAckTimout
L251 LINKER/LOCATER V4.66.93.0                                                        05/22/2024  17:23:32  PAGE 21


      00010A97H   XDATA    ---       Remchenable
      000109B8H   XDATA    ---       Remchflag
      00010473H   XDATA    ---       RemChStatus
      000001DBH   EDATA    WORD      Remchtim
      00FF48EBH   CODE     ---       RemCtlTask
      000001D3H   EDATA    BYTE      RemPage
      00FF179DH   CODE     ---       RemPageCtl
      00010A91H   XDATA    ---       RemRegAddr
      00010A9FH   XDATA    ---       RemRunStatus
      000001D7H   EDATA    BYTE      RemStart
      000001EAH   EDATA    BYTE      RemStop
*SFR* 00000098H.4 DATA     BIT       REN
      00FF2AC9H   CODE     ---       ReturnStart
*SFR* 00000098H.0 DATA     BIT       RI
*SFR* 000000FFH   DATA     BYTE      RSTCFG
      00FF0026H   CODE     ---       RunCheck
      000103BBH   XDATA    ---       RunInfo
      00FF3EF3H   CODE     ---       RunLed
      00010A24H   XDATA    ---       RunStatus
      00000021H   EDATA    ---       RX1_Buffer
      000001B7H   EDATA    BYTE      RX1_Cnt
      000001B1H   EDATA    WORD      Rx1_Timer
      00010698H   XDATA    ---       RX2_Buffer
      000001BAH   EDATA    BYTE      RX2_Cnt
      000001B3H   EDATA    WORD      Rx2_Timer
      00010760H   XDATA    ---       RX3_Buffer
      000001BBH   EDATA    BYTE      RX3_Cnt
      000001B5H   EDATA    WORD      Rx3_Timer
      000000E9H   EDATA    ---       RX4_Buffer
      000001BDH   EDATA    BYTE      RX4_Cnt
      000001B8H   EDATA    WORD      Rx4_Timer
*SFR* 0000009BH   DATA     BYTE      S2BUF
*SFR* 0000009AH   DATA     BYTE      S2CON
*SFR* 0000009AH.4 DATA     BIT       S2REN
*SFR* 0000009AH.0 DATA     BIT       S2RI
*SFR* 0000009AH.1 DATA     BIT       S2TI
*SFR* 000000ADH   DATA     BYTE      S3BUF
*SFR* 000000ACH   DATA     BYTE      S3CON
*SFR* 000000ACH.4 DATA     BIT       S3REN
*SFR* 000000ACH.0 DATA     BIT       S3RI
*SFR* 000000ACH.1 DATA     BIT       S3TI
*SFR* 000000FEH   DATA     BYTE      S4BUF
*SFR* 000000FDH   DATA     BYTE      S4CON
*SFR* 000000FDH.4 DATA     BIT       S4REN
*SFR* 000000FDH.0 DATA     BIT       S4RI
*SFR* 000000FDH.1 DATA     BIT       S4TI
      00FF445EH   CODE     ---       SampCtl
      00FF48E7H   CODE     ---       SaveParam
*SFR* 00000099H   DATA     BYTE      SBUF
*SFR* 00000098H   DATA     BYTE      SCON
      00010828H   XDATA    ---       SendBuf1
      00FF44B6H   CODE     ---       SendBuffer
      00FF24ECH   CODE     ---       SendChannelParam
      000001D2H   EDATA    BYTE      SendFlowFlag
      000001EBH   EDATA    WORD      SendFlowTim
      00FF1F86H   CODE     ---       SendParam
      00FF45A8H   CODE     ---       SendReadFlow
      00FF4663H   CODE     ---       SendReadFlowCmd
      00FF4162H   CODE     ---       SendTcpFrame
*DEL*:00000000H   CODE     ---       SensorInit
      00FF3DCBH   CODE     ---       SetBkLight
      00FF3ACAH   CODE     ---       SetChannel1Mode
      00FF3B17H   CODE     ---       SetChannel2Mode
      00FF3B64H   CODE     ---       SetChannel3Mode
      00FF3BB1H   CODE     ---       SetChannel4Mode
L251 LINKER/LOCATER V4.66.93.0                                                        05/22/2024  17:23:32  PAGE 22


      00FF3BFEH   CODE     ---       SetChannel5Mode
      00FF3C4BH   CODE     ---       SetChannel6Mode
      00FF3C98H   CODE     ---       SetChannel7Mode
      00FF3CE5H   CODE     ---       SetChannel8Mode
*DEL*:00000000H   CODE     ---       SetChCount
      00FF294CH   CODE     ---       SetCurTime
      00FF2C35H   CODE     ---       SetLcdTime
      00FF46CBH   CODE     ---       SetRegValue
      00FF3307H   CODE     ---       SetRunTime
      00FF3D32H   CODE     ---       SetSampMode
      00FF448AH   CODE     ---       SetStartBtn
      00FF470CH   CODE     ---       SetTextColor
      00FF25EEH   CODE     ---       ShowDevInfo
      00FF472BH   CODE     ---       ShowEmStop
      00FF46A9H   CODE     ---       ShowFlow
      00FF463FH   CODE     ---       ShowModule
      0001024BH   XDATA    ---       ShowParam
      00FF4765H   CODE     ---       ShowRemCh
      00FF23E2H   CODE     ---       ShowStatus
      00FF47B2H   CODE     ---       ShowTemp
      000001DDH   EDATA    FLOAT     SimFlow
*SFR* 000000CEH   DATA     BYTE      SPCTL
      00FF03D7H   CODE     NEAR LAB  sprintf
*SFR* 000000CDH   DATA     BYTE      SPSTAT
      00FF455AH   CODE     ---       StartButton
      00FF328FH   CODE     ---       StartSamp
      00FF2EDAH   CODE     ---       StatusColor
      00FF3787H   CODE     ---       StatusPoint
      00FF2CE3H   CODE     ---       StopSamp
      00FF48BDH   CODE     ---       strlen?_
      00010AA1H   XDATA    ---       StrTmp
      00FF008EH   CODE     ---       SwDWord
*DEL*:00000000H   CODE     ---       SwEndian
*DEL*:00000000H   CODE     ---       SwEndianW
      00FF48DDH   CODE     ---       SwWord
      00FF3195H   CODE     ---       SyncModBusDev
      00FF4532H   CODE     ---       SysInit
      000109C0H   XDATA    ---       SysParam
*SFR* 000000D6H   DATA     BYTE      T2H
*SFR* 000000D7H   DATA     BYTE      T2L
*SFR* 0000008EH.4 DATA     BIT       T2R
*SFR* 0000008EH.2 DATA     BIT       T2x12
*SFR* 000000D4H   DATA     BYTE      T3H
*SFR* 000000D5H   DATA     BYTE      T3L
*SFR* 000000DDH.3 DATA     BIT       T3R
*SFR* 000000D2H   DATA     BYTE      T4H
*SFR* 000000D3H   DATA     BYTE      T4L
*SFR* 000000DDH.7 DATA     BIT       T4R
*SFR* 000000DDH   DATA     BYTE      T4T3M
      00FF3A30H   CODE     ---       Task1s
*SFR* 00000088H   DATA     BYTE      TCON
      00FF1BDFH   CODE     ---       temp_table
      0001033BH   XDATA    ---       TempBuf
      00000406H   EDATA    WORD      TEMPER
      00000408H   EDATA    WORD      TEMPER_Val
*SFR* 0000008CH   DATA     BYTE      TH0
*SFR* 0000008DH   DATA     BYTE      TH1
*SFR* 00000098H.1 DATA     BIT       TI
      000001EDH   EDATA    WORD      Timer0Cnt
      00FF47CBH   CODE     ---       Timer0Init
      00FF41A1H   CODE     ---       Timer0Int
      00FF20A6H   CODE     ---       TimerTask
      00FF1438H   CODE     ---       TimingMode
*SFR* 0000008AH   DATA     BYTE      TL0
*SFR* 0000008BH   DATA     BYTE      TL1
L251 LINKER/LOCATER V4.66.93.0                                                        05/22/2024  17:23:32  PAGE 23


*SFR* 00000089H   DATA     BYTE      TMOD
*SFR* 00000088H.4 DATA     BIT       TR0
*SFR* 00000088H.6 DATA     BIT       TR1
      000001BCH   EDATA    BYTE      TX1_Cnt
      000001BEH   EDATA    BYTE      TX2_Cnt
      000001BFH   EDATA    BYTE      TX3_Cnt
      000001C0H   EDATA    BYTE      TX4_Cnt
      00FF37D7H   CODE     ---       TxtColor
      00FF39E1H   CODE     ---       UART1_config
      00FF3F81H   CODE     ---       UART1_int
      00FF4883H   CODE     ---       Uart1Hnd
*DEL*:00000000H   CODE     ---       Uart1Send
      00FF3E62H   CODE     ---       UART2_config
      00FF37E1H   CODE     ---       UART2_int
      00FF3A7DH   CODE     ---       Uart2Hnd
      00FF4122H   CODE     ---       Uart2Send
      00FF433FH   CODE     ---       UART3_config
      00FF3838H   CODE     ---       UART3_int
      00FF45F5H   CODE     ---       Uart3Hnd
      00FF3FC8H   CODE     ---       Uart3Send
      00FF4374H   CODE     ---       UART4_config
      00FF3E17H   CODE     ---       UART4_int
      00FF4306H   CODE     ---       Uart4Hnd
      00FF400EH   CODE     ---       Uart4Send
      00FF3610H   CODE     ---       UpdataUI
*SFR* 000000F4H   DATA     BYTE      USBCON
      00FF35ACH   CODE     ---       ValidLcdFrame
      00FF4581H   CODE     ---       ValidRtuFrame
*DEL*:00000000H   CODE     ---       ValidTcpFrame
      000001D1H   EDATA    BYTE      ValveIOFlag
      00FF44E1H   CODE     ---       VerifyPassWord
      00FF000AH   CODE     BYTE      VERSION
      00FF125DH   CODE     ---       VolumeMode
*SFR* 000000C1H   DATA     BYTE      WDT_CONTR
      00FF310FH   CODE     ---       WriteAck
      00010483H   XDATA    ---       WriteAckFrame
      00FF0046H   CODE     ---       WriteParam
      00FF0021H   CODE     ---       WriteReg
      00FF33F5H   CODE     ---       WriteRegValue
*SFR* 000000E9H   DATA     BYTE      WTST



SYMBOL TABLE OF MODULE:  .\obj\PileCore (ISR)

      VALUE       REP       CLASS    TYPE      SYMBOL NAME
      ====================================================
      ---         MODULE    ---      ---       ISR

      ---         MODULE    ---      ---       main
      00FF3610H   PUBLIC    CODE     ---       UpdataUI
      00FF0046H   PUBLIC    CODE     ---       WriteParam
      00FF125DH   PUBLIC    CODE     ---       VolumeMode
      00FF287AH   PUBLIC    CODE     ---       ParamDef
      00FF48E7H   PUBLIC    CODE     ---       SaveParam
      00FF4813H   PUBLIC    CODE     ---       Error
      00FF3195H   PUBLIC    CODE     ---       SyncModBusDev
      00FF3546H   PUBLIC    CODE     ---       GetAlarm
      00FF450AH   PUBLIC    CODE     ---       CheckModeStop
      00FF48CBH   PUBLIC    CODE     ---       DebugMsg
      00FF4258H   PUBLIC    CODE     ---       DebugInt
      00FF0026H   PUBLIC    CODE     ---       RunCheck
      00FF20A6H   PUBLIC    CODE     ---       TimerTask
      00FF48D7H   PUBLIC    CODE     ---       ClosePump
      00FF1E55H   PUBLIC    CODE     ---       GetValve
L251 LINKER/LOCATER V4.66.93.0                                                        05/22/2024  17:23:32  PAGE 24


      00FF328FH   PUBLIC    CODE     ---       StartSamp
      00FF0096H   PUBLIC    CODE     ---       main
      00FF3213H   PUBLIC    CODE     ---       InitLcd
      00FF3671H   PUBLIC    CODE     ---       OutFlash
      00FF000EH   PUBLIC    CODE     ---       LedInit
      00FF2D8FH   PUBLIC    CODE     ---       DumpCmd
      00FF372DH   PUBLIC    CODE     ---       HndInput
      00FF42CDH   PUBLIC    CODE     ---       FlowTask
      00FF0003H   PUBLIC    CODE     ---       OpenPump
      00FF3A30H   PUBLIC    CODE     ---       Task1s
      00FF1602H   PUBLIC    CODE     ---       GetFlow
      00FF4663H   PUBLIC    CODE     ---       SendReadFlowCmd
      00FF2CE3H   PUBLIC    CODE     ---       StopSamp
      00FF1A8CH   PUBLIC    CODE     ---       Channel_ManMode
      00FF179DH   PUBLIC    CODE     ---       RemPageCtl
      00FF2FFDH   PUBLIC    CODE     ---       AbnorAlaerm
      00FF47CBH   PUBLIC    CODE     ---       Timer0Init
      00FF3EF3H   PUBLIC    CODE     ---       RunLed
      00FF4293H   PUBLIC    CODE     ---       IoInit
      00FF0F44H   PUBLIC    CODE     ---       CheckAlarm
      00FF3D7FH   PUBLIC    CODE     ---       ParamCheck
      00FF4532H   PUBLIC    CODE     ---       SysInit
      00FF2E37H   PUBLIC    CODE     ---       DevRun
      00FF191AH   PUBLIC    CODE     ---       OutCtl
      00FF48EBH   PUBLIC    CODE     ---       RemCtlTask
      00FF41A1H   PUBLIC    CODE     ---       Timer0Int
      00FF22D2H   PUBLIC    CODE     ---       CheckValve
      00FF3F3AH   PUBLIC    CODE     ---       Delay
      00FF4054H   PUBLIC    CODE     ---       ReadParam
      00FF1438H   PUBLIC    CODE     ---       TimingMode
      00FF398FH   PUBLIC    CODE     ---       IoCtlTask
      00FF4799H   PUBLIC    CODE     ---       CloseValve
      000001C1H   PUBLIC    EDATA    WORD      DelayCount
      000001C3H   PUBLIC    EDATA    ---       g_OutStatus
      000001D0H   PUBLIC    EDATA    BYTE      Delayflag
      000001D1H   PUBLIC    EDATA    BYTE      ValveIOFlag
      000001D2H   PUBLIC    EDATA    BYTE      SendFlowFlag
      000001D3H   PUBLIC    EDATA    BYTE      RemPage
      000001D4H   PUBLIC    EDATA    BYTE      g_Key_Confrom
      000001D5H   PUBLIC    EDATA    WORD      gRunTime
      000001D7H   PUBLIC    EDATA    BYTE      RemStart
      000001D8H   PUBLIC    EDATA    BYTE      LcdBusyFlag
      000001D9H   PUBLIC    EDATA    WORD      RemAckTimout
      000001DBH   PUBLIC    EDATA    WORD      Remchtim
      000001DDH   PUBLIC    EDATA    FLOAT     SimFlow
      000001E1H   PUBLIC    EDATA    ---       ChannelError
      000001EAH   PUBLIC    EDATA    BYTE      RemStop
      000001EBH   PUBLIC    EDATA    WORD      SendFlowTim
      000001EDH   PUBLIC    EDATA    WORD      Timer0Cnt
      000001EFH   PUBLIC    EDATA    ---       g_Output
      000001FCH   PUBLIC    EDATA    BYTE      ChNum
      000001FDH   PUBLIC    EDATA    BYTE      g_Key_Power
      000001FEH   PUBLIC    EDATA    BYTE      g_Key_Input
      000001FFH   PUBLIC    EDATA    BYTE      ChannelStop
      00000200H   PUBLIC    EDATA    WORD      LcdBusyTim
      00000202H   PUBLIC    EDATA    BYTE      RemAckOut
      00000203H   PUBLIC    EDATA    BYTE      PageSwitch
      00000204H   PUBLIC    EDATA    BYTE      Input_Status
      000109B8H   PUBLIC    XDATA    ---       Remchflag
      000109C0H   PUBLIC    XDATA    ---       SysParam
      00010A24H   PUBLIC    XDATA    ---       RunStatus
      00010A91H   PUBLIC    XDATA    ---       RemRegAddr
      00010A97H   PUBLIC    XDATA    ---       Remchenable
      00010A9FH   PUBLIC    XDATA    ---       RemRunStatus
      00010AA1H   PUBLIC    XDATA    ---       StrTmp
L251 LINKER/LOCATER V4.66.93.0                                                        05/22/2024  17:23:32  PAGE 25


      00FF000AH   PUBLIC    CODE     BYTE      VERSION
      00000094H   SFRSYM    DATA     BYTE      P0M0
      000000D0H   SFRSYM    DATA     BYTE      PSW
      000000BAH.7 SFRSYM    DATA     BIT       EAXFR
      0000009DH   SFRSYM    DATA     BYTE      IRCBAND
      00000097H   SFRSYM    DATA     BYTE      AUXR2
      000000EFH   SFRSYM    DATA     BYTE      AUXINTIF
      000000FDH   SFRSYM    DATA     BYTE      S4CON
      000000ACH   SFRSYM    DATA     BYTE      S3CON
      0000009AH   SFRSYM    DATA     BYTE      S2CON
      000000B7H   SFRSYM    DATA     BYTE      IPH
      000000CDH   SFRSYM    DATA     BYTE      SPSTAT
      000000DDH   SFRSYM    DATA     BYTE      T4T3M
      000000C1H   SFRSYM    DATA     BYTE      WDT_CONTR
      00000088H.4 SFRSYM    DATA     BIT       TR0
      000000B8H.1 SFRSYM    DATA     BIT       PT0
      000000E9H   SFRSYM    DATA     BYTE      WTST
      0000008AH   SFRSYM    DATA     BYTE      TL0
      0000008CH   SFRSYM    DATA     BYTE      TH0
      000000DFH   SFRSYM    DATA     BYTE      IP3
      000000F4H   SFRSYM    DATA     BYTE      USBCON
      000000B5H   SFRSYM    DATA     BYTE      IP2
      000000FFH   SFRSYM    DATA     BYTE      RSTCFG
      000000A8H.1 SFRSYM    DATA     BIT       ET0
      000000C7H   SFRSYM    DATA     BYTE      IAP_CONTR
      000000F9H   SFRSYM    DATA     BYTE      LINICR
      0000008EH   SFRSYM    DATA     BYTE      AUXR
      000000AFH   SFRSYM    DATA     BYTE      IE2
      00000088H   SFRSYM    DATA     BYTE      TCON
      00000089H   SFRSYM    DATA     BYTE      TMOD
      00000098H   SFRSYM    DATA     BYTE      SCON
      000000C1H.4 SFRSYM    DATA     BIT       CLR_WDT
      000000F1H   SFRSYM    DATA     BYTE      CANICR
      00000087H   SFRSYM    DATA     BYTE      PCON
      000000BCH   SFRSYM    DATA     BYTE      ADC_CONTR
      000000E7H   SFRSYM    DATA     BYTE      CMPCR2
      000000E6H   SFRSYM    DATA     BYTE      CMPCR1
      000000B7H.1 SFRSYM    DATA     BIT       PT0H
      000000DEH   SFRSYM    DATA     BYTE      ADCCFG
      000000B8H   SFRSYM    DATA     BYTE      IP
      0000008FH   SFRSYM    DATA     BYTE      INTCLKO
      000000EEH   SFRSYM    DATA     BYTE      IP3H
      000000B6H   SFRSYM    DATA     BYTE      IP2H
      000000A8H   SFRSYM    DATA     BYTE      IE
      000000BBH   SFRSYM    DATA     BYTE      P_SW3
      000000BAH   SFRSYM    DATA     BYTE      P_SW2
      000000A2H   SFRSYM    DATA     BYTE      P_SW1
      000000CEH   SFRSYM    DATA     BYTE      SPCTL
      000000F8H   SFRSYM    DATA     BYTE      P7
      000000A8H.7 SFRSYM    DATA     BIT       EA
      000000E1H   SFRSYM    DATA     BYTE      P7M1
      000000E8H   SFRSYM    DATA     BYTE      P6
      000000C8H   SFRSYM    DATA     BYTE      P5
      000000CBH   SFRSYM    DATA     BYTE      P6M1
      000000E2H   SFRSYM    DATA     BYTE      P7M0
      000000C0H   SFRSYM    DATA     BYTE      P4
      000000C9H   SFRSYM    DATA     BYTE      P5M1
      000000CCH   SFRSYM    DATA     BYTE      P6M0
      000000B0H   SFRSYM    DATA     BYTE      P3
      000000B3H   SFRSYM    DATA     BYTE      P4M1
      000000CAH   SFRSYM    DATA     BYTE      P5M0
      000000A0H   SFRSYM    DATA     BYTE      P2
      000000B1H   SFRSYM    DATA     BYTE      P3M1
      000000B4H   SFRSYM    DATA     BYTE      P4M0
      00000090H   SFRSYM    DATA     BYTE      P1
L251 LINKER/LOCATER V4.66.93.0                                                        05/22/2024  17:23:32  PAGE 26


      00000095H   SFRSYM    DATA     BYTE      P2M1
      000000B2H   SFRSYM    DATA     BYTE      P3M0
      00000080H   SFRSYM    DATA     BYTE      P0
      00000091H   SFRSYM    DATA     BYTE      P1M1
      00000096H   SFRSYM    DATA     BYTE      P2M0
      00000092H   SFRSYM    DATA     BYTE      P1M0
      00000093H   SFRSYM    DATA     BYTE      P0M1

      ---         MODULE    ---      ---       EepRom
      00FF4841H   PUBLIC    CODE     ---       DisableEEPROM
      00FF43D7H   PUBLIC    CODE     ---       EEPROM_SectorErase
      00FF47E3H   PUBLIC    CODE     ---       EEPROM_Trig
      00FF34DAH   PUBLIC    CODE     ---       EEPROM_read
      00FF21BDH   PUBLIC    CODE     ---       EEPROM_write
      0000030DH   PUBLIC    EDATA    BYTE      ?EEPROM_read?BYTE
      00000287H   PUBLIC    EDATA    BYTE      ?EEPROM_write?BYTE
      000000D0H   SFRSYM    DATA     BYTE      PSW
      0000009DH   SFRSYM    DATA     BYTE      IRCBAND
      000000D0H.5 SFRSYM    DATA     BIT       F0
      00000097H   SFRSYM    DATA     BYTE      AUXR2
      000000C6H   SFRSYM    DATA     BYTE      IAP_TRIG
      000000EFH   SFRSYM    DATA     BYTE      AUXINTIF
      000000FDH   SFRSYM    DATA     BYTE      S4CON
      000000ACH   SFRSYM    DATA     BYTE      S3CON
      0000009AH   SFRSYM    DATA     BYTE      S2CON
      000000B7H   SFRSYM    DATA     BYTE      IPH
      000000CDH   SFRSYM    DATA     BYTE      SPSTAT
      000000DDH   SFRSYM    DATA     BYTE      T4T3M
      000000C1H   SFRSYM    DATA     BYTE      WDT_CONTR
      000000C2H   SFRSYM    DATA     BYTE      IAP_DATA
      000000DFH   SFRSYM    DATA     BYTE      IP3
      000000F4H   SFRSYM    DATA     BYTE      USBCON
      000000B5H   SFRSYM    DATA     BYTE      IP2
      000000FFH   SFRSYM    DATA     BYTE      RSTCFG
      000000C7H   SFRSYM    DATA     BYTE      IAP_CONTR
      000000F9H   SFRSYM    DATA     BYTE      LINICR
      0000008EH   SFRSYM    DATA     BYTE      AUXR
      000000AFH   SFRSYM    DATA     BYTE      IE2
      00000088H   SFRSYM    DATA     BYTE      TCON
      00000089H   SFRSYM    DATA     BYTE      TMOD
      00000098H   SFRSYM    DATA     BYTE      SCON
      000000F5H   SFRSYM    DATA     BYTE      IAP_TPS
      000000F1H   SFRSYM    DATA     BYTE      CANICR
      00000087H   SFRSYM    DATA     BYTE      PCON
      000000BCH   SFRSYM    DATA     BYTE      ADC_CONTR
      000000E7H   SFRSYM    DATA     BYTE      CMPCR2
      000000E6H   SFRSYM    DATA     BYTE      CMPCR1
      000000C4H   SFRSYM    DATA     BYTE      IAP_ADDRL
      000000C3H   SFRSYM    DATA     BYTE      IAP_ADDRH
      000000F6H   SFRSYM    DATA     BYTE      IAP_ADDRE
      000000DEH   SFRSYM    DATA     BYTE      ADCCFG
      000000B8H   SFRSYM    DATA     BYTE      IP
      0000008FH   SFRSYM    DATA     BYTE      INTCLKO
      000000EEH   SFRSYM    DATA     BYTE      IP3H
      000000B6H   SFRSYM    DATA     BYTE      IP2H
      000000C5H   SFRSYM    DATA     BYTE      IAP_CMD
      000000A8H   SFRSYM    DATA     BYTE      IE
      000000BBH   SFRSYM    DATA     BYTE      P_SW3
      000000BAH   SFRSYM    DATA     BYTE      P_SW2
      000000A2H   SFRSYM    DATA     BYTE      P_SW1
      000000CEH   SFRSYM    DATA     BYTE      SPCTL
      000000F8H   SFRSYM    DATA     BYTE      P7
      000000A8H.7 SFRSYM    DATA     BIT       EA
      000000E8H   SFRSYM    DATA     BYTE      P6
      000000C8H   SFRSYM    DATA     BYTE      P5
L251 LINKER/LOCATER V4.66.93.0                                                        05/22/2024  17:23:32  PAGE 27


      000000C0H   SFRSYM    DATA     BYTE      P4
      000000B0H   SFRSYM    DATA     BYTE      P3
      000000A0H   SFRSYM    DATA     BYTE      P2
      00000090H   SFRSYM    DATA     BYTE      P1
      00000080H   SFRSYM    DATA     BYTE      P0

      ---         MODULE    ---      ---       uart
      00FF3F81H   PUBLIC    CODE     ---       UART1_int
      00FF37E1H   PUBLIC    CODE     ---       UART2_int
      00FF3838H   PUBLIC    CODE     ---       UART3_int
      00FF3E17H   PUBLIC    CODE     ---       UART4_int
      00FF39E1H   PUBLIC    CODE     ---       UART1_config
      00FF3E62H   PUBLIC    CODE     ---       UART2_config
      00FF433FH   PUBLIC    CODE     ---       UART3_config
      00FF4374H   PUBLIC    CODE     ---       UART4_config
      00FF4899H   PUBLIC    CODE     ---       ClearUart1Buf
      00FF4857H   PUBLIC    CODE     ---       ClearUart2Buf
      00FF486DH   PUBLIC    CODE     ---       ClearUart3Buf
      00FF48ABH   PUBLIC    CODE     ---       ClearUart4Buf
      00FF4122H   PUBLIC    CODE     ---       Uart2Send
      00FF3FC8H   PUBLIC    CODE     ---       Uart3Send
      00FF400EH   PUBLIC    CODE     ---       Uart4Send
      00FF4883H   PUBLIC    CODE     ---       Uart1Hnd
      00FF3A7DH   PUBLIC    CODE     ---       Uart2Hnd
      00FF45F5H   PUBLIC    CODE     ---       Uart3Hnd
      00FF4306H   PUBLIC    CODE     ---       Uart4Hnd
      00000020H.0 PUBLIC    BIT      BIT       B_TX1_Busy
      00000020H.1 PUBLIC    BIT      BIT       B_TX2_Busy
      00000020H.2 PUBLIC    BIT      BIT       B_TX3_Busy
      00000020H.3 PUBLIC    BIT      BIT       B_TX4_Busy
      00000021H   PUBLIC    EDATA    ---       RX1_Buffer
      000000E9H   PUBLIC    EDATA    ---       RX4_Buffer
      000001B1H   PUBLIC    EDATA    WORD      Rx1_Timer
      000001B3H   PUBLIC    EDATA    WORD      Rx2_Timer
      000001B5H   PUBLIC    EDATA    WORD      Rx3_Timer
      000001B7H   PUBLIC    EDATA    BYTE      RX1_Cnt
      000001B8H   PUBLIC    EDATA    WORD      Rx4_Timer
      000001BAH   PUBLIC    EDATA    BYTE      RX2_Cnt
      000001BBH   PUBLIC    EDATA    BYTE      RX3_Cnt
      000001BCH   PUBLIC    EDATA    BYTE      TX1_Cnt
      000001BDH   PUBLIC    EDATA    BYTE      RX4_Cnt
      000001BEH   PUBLIC    EDATA    BYTE      TX2_Cnt
      000001BFH   PUBLIC    EDATA    BYTE      TX3_Cnt
      000001C0H   PUBLIC    EDATA    BYTE      TX4_Cnt
      00010698H   PUBLIC    XDATA    ---       RX2_Buffer
      00010760H   PUBLIC    XDATA    ---       RX3_Buffer
      000000D0H   SFRSYM    DATA     BYTE      PSW
      0000009DH   SFRSYM    DATA     BYTE      IRCBAND
      00000097H   SFRSYM    DATA     BYTE      AUXR2
      000000FDH.4 SFRSYM    DATA     BIT       S4REN
      000000ACH.4 SFRSYM    DATA     BIT       S3REN
      0000009AH.4 SFRSYM    DATA     BIT       S2REN
      000000B7H.4 SFRSYM    DATA     BIT       PSH
      000000EFH   SFRSYM    DATA     BYTE      AUXINTIF
      000000FDH   SFRSYM    DATA     BYTE      S4CON
      000000ACH   SFRSYM    DATA     BYTE      S3CON
      0000009AH   SFRSYM    DATA     BYTE      S2CON
      00000098H.4 SFRSYM    DATA     BIT       REN
      000000FEH   SFRSYM    DATA     BYTE      S4BUF
      000000ADH   SFRSYM    DATA     BYTE      S3BUF
      0000009BH   SFRSYM    DATA     BYTE      S2BUF
      0000008EH.2 SFRSYM    DATA     BIT       T2x12
      000000B7H   SFRSYM    DATA     BYTE      IPH
      000000CDH   SFRSYM    DATA     BYTE      SPSTAT
      000000DDH   SFRSYM    DATA     BYTE      T4T3M
L251 LINKER/LOCATER V4.66.93.0                                                        05/22/2024  17:23:32  PAGE 28


      000000DDH.7 SFRSYM    DATA     BIT       T4R
      000000DDH.3 SFRSYM    DATA     BIT       T3R
      0000008EH.4 SFRSYM    DATA     BIT       T2R
      000000C1H   SFRSYM    DATA     BYTE      WDT_CONTR
      00000088H.6 SFRSYM    DATA     BIT       TR1
      000000DFH.1 SFRSYM    DATA     BIT       PS4
      000000DFH.0 SFRSYM    DATA     BIT       PS3
      000000B5H.0 SFRSYM    DATA     BIT       PS2
      000000D3H   SFRSYM    DATA     BYTE      T4L
      000000D5H   SFRSYM    DATA     BYTE      T3L
      000000D7H   SFRSYM    DATA     BYTE      T2L
      0000008BH   SFRSYM    DATA     BYTE      TL1
      000000D2H   SFRSYM    DATA     BYTE      T4H
      000000D4H   SFRSYM    DATA     BYTE      T3H
      000000D6H   SFRSYM    DATA     BYTE      T2H
      0000008DH   SFRSYM    DATA     BYTE      TH1
      000000AFH.4 SFRSYM    DATA     BIT       ES4
      000000DFH   SFRSYM    DATA     BYTE      IP3
      000000F4H   SFRSYM    DATA     BYTE      USBCON
      000000AFH.3 SFRSYM    DATA     BIT       ES3
      000000AFH.2 SFRSYM    DATA     BIT       ET2
      000000B5H   SFRSYM    DATA     BYTE      IP2
      000000FFH   SFRSYM    DATA     BYTE      RSTCFG
      000000A8H.3 SFRSYM    DATA     BIT       ET1
      000000AFH.0 SFRSYM    DATA     BIT       ES2
      000000C7H   SFRSYM    DATA     BYTE      IAP_CONTR
      000000F9H   SFRSYM    DATA     BYTE      LINICR
      0000008EH   SFRSYM    DATA     BYTE      AUXR
      000000AFH   SFRSYM    DATA     BYTE      IE2
      00000088H   SFRSYM    DATA     BYTE      TCON
      00000089H   SFRSYM    DATA     BYTE      TMOD
      00000098H   SFRSYM    DATA     BYTE      SCON
      000000F1H   SFRSYM    DATA     BYTE      CANICR
      00000087H   SFRSYM    DATA     BYTE      PCON
      00000099H   SFRSYM    DATA     BYTE      SBUF
      000000BCH   SFRSYM    DATA     BYTE      ADC_CONTR
      000000E7H   SFRSYM    DATA     BYTE      CMPCR2
      000000E6H   SFRSYM    DATA     BYTE      CMPCR1
      000000FDH.1 SFRSYM    DATA     BIT       S4TI
      000000ACH.1 SFRSYM    DATA     BIT       S3TI
      0000009AH.1 SFRSYM    DATA     BIT       S2TI
      000000B8H.4 SFRSYM    DATA     BIT       PS
      000000FDH.0 SFRSYM    DATA     BIT       S4RI
      000000ACH.0 SFRSYM    DATA     BIT       S3RI
      0000009AH.0 SFRSYM    DATA     BIT       S2RI
      000000EEH.1 SFRSYM    DATA     BIT       PS4H
      000000EEH.0 SFRSYM    DATA     BIT       PS3H
      000000B6H.0 SFRSYM    DATA     BIT       PS2H
      00000098H.1 SFRSYM    DATA     BIT       TI
      00000098H.0 SFRSYM    DATA     BIT       RI
      000000DEH   SFRSYM    DATA     BYTE      ADCCFG
      000000B8H   SFRSYM    DATA     BYTE      IP
      000000A8H.4 SFRSYM    DATA     BIT       ES
      0000008FH   SFRSYM    DATA     BYTE      INTCLKO
      000000EEH   SFRSYM    DATA     BYTE      IP3H
      000000B6H   SFRSYM    DATA     BYTE      IP2H
      000000A8H   SFRSYM    DATA     BYTE      IE
      000000BBH   SFRSYM    DATA     BYTE      P_SW3
      000000BAH   SFRSYM    DATA     BYTE      P_SW2
      000000A2H   SFRSYM    DATA     BYTE      P_SW1
      000000CEH   SFRSYM    DATA     BYTE      SPCTL
      000000F8H   SFRSYM    DATA     BYTE      P7
      000000E8H   SFRSYM    DATA     BYTE      P6
      000000C8H   SFRSYM    DATA     BYTE      P5
      000000C0H   SFRSYM    DATA     BYTE      P4
L251 LINKER/LOCATER V4.66.93.0                                                        05/22/2024  17:23:32  PAGE 29


      000000B0H   SFRSYM    DATA     BYTE      P3
      000000A0H   SFRSYM    DATA     BYTE      P2
      00000090H   SFRSYM    DATA     BYTE      P1
      00000080H   SFRSYM    DATA     BYTE      P0

      ---         MODULE    ---      ---       Lcd
      00FF4404H   PUBLIC    CODE     ---       CheckDataLen
      00FF4099H   PUBLIC    CODE     ---       EnterPage
      00FF463FH   PUBLIC    CODE     ---       ShowModule
      00FF3EABH   PUBLIC    CODE     ---       HndLcdFrame
      00FF2B80H   PUBLIC    CODE     ---       LcdCmd
      00FF482AH   PUBLIC    CODE     ---       HndLcdData
      00FF008EH   PUBLIC    CODE     ---       SwDWord
      00FF474AH   PUBLIC    CODE     ---       ClearRevBuf
      00FF4431H   PUBLIC    CODE     ---       GetLcdTime
      00FF38E5H   PUBLIC    CODE     ---       PopWord
      00FF2C35H   PUBLIC    CODE     ---       SetLcdTime
      00FF3DCBH   PUBLIC    CODE     ---       SetBkLight
      00FF470CH   PUBLIC    CODE     ---       SetTextColor
      00FF45CFH   PUBLIC    CODE     ---       HideModule
      00FF48DDH   PUBLIC    CODE     ---       SwWord
      00FF35ACH   PUBLIC    CODE     ---       ValidLcdFrame
      0000040EH   PUBLIC    EDATA    BYTE      RecLength1
      0000040FH   PUBLIC    EDATA    BYTE      LcdFrameloc
      00000410H   PUBLIC    EDATA    BYTE      DataIndex
      00010828H   PUBLIC    XDATA    ---       SendBuf1
      000108F0H   PUBLIC    XDATA    ---       RecvBuf1
      000000D0H   SFRSYM    DATA     BYTE      PSW
      0000009DH   SFRSYM    DATA     BYTE      IRCBAND
      00000097H   SFRSYM    DATA     BYTE      AUXR2
      000000EFH   SFRSYM    DATA     BYTE      AUXINTIF
      000000FDH   SFRSYM    DATA     BYTE      S4CON
      000000ACH   SFRSYM    DATA     BYTE      S3CON
      0000009AH   SFRSYM    DATA     BYTE      S2CON
      000000B7H   SFRSYM    DATA     BYTE      IPH
      000000CDH   SFRSYM    DATA     BYTE      SPSTAT
      000000DDH   SFRSYM    DATA     BYTE      T4T3M
      000000C1H   SFRSYM    DATA     BYTE      WDT_CONTR
      000000DFH   SFRSYM    DATA     BYTE      IP3
      000000F4H   SFRSYM    DATA     BYTE      USBCON
      000000B5H   SFRSYM    DATA     BYTE      IP2
      000000FFH   SFRSYM    DATA     BYTE      RSTCFG
      000000C7H   SFRSYM    DATA     BYTE      IAP_CONTR
      000000F9H   SFRSYM    DATA     BYTE      LINICR
      0000008EH   SFRSYM    DATA     BYTE      AUXR
      000000AFH   SFRSYM    DATA     BYTE      IE2
      00000088H   SFRSYM    DATA     BYTE      TCON
      00000089H   SFRSYM    DATA     BYTE      TMOD
      00000098H   SFRSYM    DATA     BYTE      SCON
      000000F1H   SFRSYM    DATA     BYTE      CANICR
      00000087H   SFRSYM    DATA     BYTE      PCON
      000000BCH   SFRSYM    DATA     BYTE      ADC_CONTR
      000000E7H   SFRSYM    DATA     BYTE      CMPCR2
      000000E6H   SFRSYM    DATA     BYTE      CMPCR1
      000000DEH   SFRSYM    DATA     BYTE      ADCCFG
      000000B8H   SFRSYM    DATA     BYTE      IP
      0000008FH   SFRSYM    DATA     BYTE      INTCLKO
      000000EEH   SFRSYM    DATA     BYTE      IP3H
      000000B6H   SFRSYM    DATA     BYTE      IP2H
      000000A8H   SFRSYM    DATA     BYTE      IE
      000000BBH   SFRSYM    DATA     BYTE      P_SW3
      000000BAH   SFRSYM    DATA     BYTE      P_SW2
      000000A2H   SFRSYM    DATA     BYTE      P_SW1
      000000CEH   SFRSYM    DATA     BYTE      SPCTL
      000000F8H   SFRSYM    DATA     BYTE      P7
L251 LINKER/LOCATER V4.66.93.0                                                        05/22/2024  17:23:32  PAGE 30


      000000E8H   SFRSYM    DATA     BYTE      P6
      000000C8H   SFRSYM    DATA     BYTE      P5
      000000C0H   SFRSYM    DATA     BYTE      P4
      000000B0H   SFRSYM    DATA     BYTE      P3
      000000A0H   SFRSYM    DATA     BYTE      P2
      00000090H   SFRSYM    DATA     BYTE      P1
      00000080H   SFRSYM    DATA     BYTE      P0

      ---         MODULE    ---      ---       LcdApp
      00FF472BH   PUBLIC    CODE     ---       ShowEmStop
      00FF1F86H   PUBLIC    CODE     ---       SendParam
      00FF2EDAH   PUBLIC    CODE     ---       StatusColor
      00FF455AH   PUBLIC    CODE     ---       StartButton
      00FF2AC9H   PUBLIC    CODE     ---       ReturnStart
      00FF3086H   PUBLIC    CODE     ---       ModeHint
      00FF0AA7H   PUBLIC    CODE     ---       ReadReg
      00FF3ACAH   PUBLIC    CODE     ---       SetChannel1Mode
      00FF3B17H   PUBLIC    CODE     ---       SetChannel2Mode
      00FF3B64H   PUBLIC    CODE     ---       SetChannel3Mode
      00FF3BB1H   PUBLIC    CODE     ---       SetChannel4Mode
      00FF3BFEH   PUBLIC    CODE     ---       SetChannel5Mode
      00FF3C4BH   PUBLIC    CODE     ---       SetChannel6Mode
      00FF3C98H   PUBLIC    CODE     ---       SetChannel7Mode
      00FF3CE5H   PUBLIC    CODE     ---       SetChannel8Mode
      00FF23E2H   PUBLIC    CODE     ---       ShowStatus
      00FF0021H   PUBLIC    CODE     ---       WriteReg
      00FF44E1H   PUBLIC    CODE     ---       VerifyPassWord
      00FF445EH   PUBLIC    CODE     ---       SampCtl
      00FF47B2H   PUBLIC    CODE     ---       ShowTemp
      00FF46A9H   PUBLIC    CODE     ---       ShowFlow
      00FF24ECH   PUBLIC    CODE     ---       SendChannelParam
      00FF4686H   PUBLIC    CODE     ---       GetInputTime
      00FF3D32H   PUBLIC    CODE     ---       SetSampMode
      00FF46ECH   PUBLIC    CODE     ---       GetRetCode
      00FF25EEH   PUBLIC    CODE     ---       ShowDevInfo
      00FF448AH   PUBLIC    CODE     ---       SetStartBtn
      00FF294CH   PUBLIC    CODE     ---       SetCurTime
      00FF4765H   PUBLIC    CODE     ---       ShowRemCh
      00FF3307H   PUBLIC    CODE     ---       SetRunTime
      00FF3787H   PUBLIC    CODE     ---       StatusPoint
      00FF3797H   PUBLIC    CODE     ---       ModeText
      00FF37D7H   PUBLIC    CODE     ---       TxtColor
      00000299H   PUBLIC    EDATA    ---       HisAlarm
      000002A1H   PUBLIC    EDATA    ---       ChannelAlarm
      000002A9H   PUBLIC    EDATA    BYTE      NeedGetRet
      0001024BH   PUBLIC    XDATA    ---       ShowParam
      0001027BH   PUBLIC    XDATA    ---       DevInfo
      0001029BH   PUBLIC    XDATA    ---       ChannelParam
      0001033BH   PUBLIC    XDATA    ---       TempBuf
      000103BBH   PUBLIC    XDATA    ---       RunInfo
      000103F3H   PUBLIC    XDATA    ---       ChannelStatus
      00010473H   PUBLIC    XDATA    ---       RemChStatus
      000000D0H   SFRSYM    DATA     BYTE      PSW
      0000009DH   SFRSYM    DATA     BYTE      IRCBAND
      00000097H   SFRSYM    DATA     BYTE      AUXR2
      000000EFH   SFRSYM    DATA     BYTE      AUXINTIF
      000000FDH   SFRSYM    DATA     BYTE      S4CON
      000000ACH   SFRSYM    DATA     BYTE      S3CON
      0000009AH   SFRSYM    DATA     BYTE      S2CON
      000000B7H   SFRSYM    DATA     BYTE      IPH
      000000CDH   SFRSYM    DATA     BYTE      SPSTAT
      000000DDH   SFRSYM    DATA     BYTE      T4T3M
      000000C1H   SFRSYM    DATA     BYTE      WDT_CONTR
      000000DFH   SFRSYM    DATA     BYTE      IP3
      000000F4H   SFRSYM    DATA     BYTE      USBCON
L251 LINKER/LOCATER V4.66.93.0                                                        05/22/2024  17:23:32  PAGE 31


      000000B5H   SFRSYM    DATA     BYTE      IP2
      000000FFH   SFRSYM    DATA     BYTE      RSTCFG
      000000C7H   SFRSYM    DATA     BYTE      IAP_CONTR
      000000F9H   SFRSYM    DATA     BYTE      LINICR
      0000008EH   SFRSYM    DATA     BYTE      AUXR
      000000AFH   SFRSYM    DATA     BYTE      IE2
      00000088H   SFRSYM    DATA     BYTE      TCON
      00000089H   SFRSYM    DATA     BYTE      TMOD
      00000098H   SFRSYM    DATA     BYTE      SCON
      000000F1H   SFRSYM    DATA     BYTE      CANICR
      00000087H   SFRSYM    DATA     BYTE      PCON
      000000BCH   SFRSYM    DATA     BYTE      ADC_CONTR
      000000E7H   SFRSYM    DATA     BYTE      CMPCR2
      000000E6H   SFRSYM    DATA     BYTE      CMPCR1
      000000DEH   SFRSYM    DATA     BYTE      ADCCFG
      000000B8H   SFRSYM    DATA     BYTE      IP
      0000008FH   SFRSYM    DATA     BYTE      INTCLKO
      000000EEH   SFRSYM    DATA     BYTE      IP3H
      000000B6H   SFRSYM    DATA     BYTE      IP2H
      000000A8H   SFRSYM    DATA     BYTE      IE
      000000BBH   SFRSYM    DATA     BYTE      P_SW3
      000000BAH   SFRSYM    DATA     BYTE      P_SW2
      000000A2H   SFRSYM    DATA     BYTE      P_SW1
      000000CEH   SFRSYM    DATA     BYTE      SPCTL
      000000F8H   SFRSYM    DATA     BYTE      P7
      000000E8H   SFRSYM    DATA     BYTE      P6
      000000C8H   SFRSYM    DATA     BYTE      P5
      000000C0H   SFRSYM    DATA     BYTE      P4
      000000B0H   SFRSYM    DATA     BYTE      P3
      000000A0H   SFRSYM    DATA     BYTE      P2
      00000090H   SFRSYM    DATA     BYTE      P1
      00000080H   SFRSYM    DATA     BYTE      P0

      ---         MODULE    ---      ---       ModBus
      00FF4581H   PUBLIC    CODE     ---       ValidRtuFrame
      00FF2A0FH   PUBLIC    CODE     ---       CRC16Calc
      00FF48E2H   PUBLIC    CODE     ---       RegSw
      000000D0H   SFRSYM    DATA     BYTE      PSW
      0000009DH   SFRSYM    DATA     BYTE      IRCBAND
      00000097H   SFRSYM    DATA     BYTE      AUXR2
      000000EFH   SFRSYM    DATA     BYTE      AUXINTIF
      000000FDH   SFRSYM    DATA     BYTE      S4CON
      000000ACH   SFRSYM    DATA     BYTE      S3CON
      0000009AH   SFRSYM    DATA     BYTE      S2CON
      000000B7H   SFRSYM    DATA     BYTE      IPH
      000000CDH   SFRSYM    DATA     BYTE      SPSTAT
      000000DDH   SFRSYM    DATA     BYTE      T4T3M
      000000C1H   SFRSYM    DATA     BYTE      WDT_CONTR
      000000DFH   SFRSYM    DATA     BYTE      IP3
      000000F4H   SFRSYM    DATA     BYTE      USBCON
      000000B5H   SFRSYM    DATA     BYTE      IP2
      000000FFH   SFRSYM    DATA     BYTE      RSTCFG
      000000C7H   SFRSYM    DATA     BYTE      IAP_CONTR
      000000F9H   SFRSYM    DATA     BYTE      LINICR
      0000008EH   SFRSYM    DATA     BYTE      AUXR
      000000AFH   SFRSYM    DATA     BYTE      IE2
      00000088H   SFRSYM    DATA     BYTE      TCON
      00000089H   SFRSYM    DATA     BYTE      TMOD
      00000098H   SFRSYM    DATA     BYTE      SCON
      000000F1H   SFRSYM    DATA     BYTE      CANICR
      00000087H   SFRSYM    DATA     BYTE      PCON
      000000BCH   SFRSYM    DATA     BYTE      ADC_CONTR
      000000E7H   SFRSYM    DATA     BYTE      CMPCR2
      000000E6H   SFRSYM    DATA     BYTE      CMPCR1
      000000DEH   SFRSYM    DATA     BYTE      ADCCFG
L251 LINKER/LOCATER V4.66.93.0                                                        05/22/2024  17:23:32  PAGE 32


      000000B8H   SFRSYM    DATA     BYTE      IP
      0000008FH   SFRSYM    DATA     BYTE      INTCLKO
      000000EEH   SFRSYM    DATA     BYTE      IP3H
      000000B6H   SFRSYM    DATA     BYTE      IP2H
      000000A8H   SFRSYM    DATA     BYTE      IE
      000000BBH   SFRSYM    DATA     BYTE      P_SW3
      000000BAH   SFRSYM    DATA     BYTE      P_SW2
      000000A2H   SFRSYM    DATA     BYTE      P_SW1
      000000CEH   SFRSYM    DATA     BYTE      SPCTL
      000000F8H   SFRSYM    DATA     BYTE      P7
      000000E8H   SFRSYM    DATA     BYTE      P6
      000000C8H   SFRSYM    DATA     BYTE      P5
      000000C0H   SFRSYM    DATA     BYTE      P4
      000000B0H   SFRSYM    DATA     BYTE      P3
      000000A0H   SFRSYM    DATA     BYTE      P2
      00000090H   SFRSYM    DATA     BYTE      P1
      00000080H   SFRSYM    DATA     BYTE      P0

      ---         MODULE    ---      ---       Temper
      00FF47FBH   PUBLIC    CODE     ---       Adc_Init
      00FF2F71H   PUBLIC    CODE     ---       Get_Temperature
      00FF388FH   PUBLIC    CODE     ---       ADC_Temp
      00FF40DEH   PUBLIC    CODE     ---       Get_ADC12bitResult
      00FF1BDFH   PUBLIC    CODE     ---       temp_table
      00000406H   PUBLIC    EDATA    WORD      TEMPER
      00000408H   PUBLIC    EDATA    WORD      TEMPER_Val
      000000D0H   SFRSYM    DATA     BYTE      PSW
      0000009DH   SFRSYM    DATA     BYTE      IRCBAND
      00000097H   SFRSYM    DATA     BYTE      AUXR2
      000000EFH   SFRSYM    DATA     BYTE      AUXINTIF
      000000FDH   SFRSYM    DATA     BYTE      S4CON
      000000ACH   SFRSYM    DATA     BYTE      S3CON
      0000009AH   SFRSYM    DATA     BYTE      S2CON
      000000B7H   SFRSYM    DATA     BYTE      IPH
      000000CDH   SFRSYM    DATA     BYTE      SPSTAT
      000000BEH   SFRSYM    DATA     BYTE      ADC_RESL
      000000DDH   SFRSYM    DATA     BYTE      T4T3M
      000000C1H   SFRSYM    DATA     BYTE      WDT_CONTR
      000000DFH   SFRSYM    DATA     BYTE      IP3
      000000F4H   SFRSYM    DATA     BYTE      USBCON
      000000B5H   SFRSYM    DATA     BYTE      IP2
      000000FFH   SFRSYM    DATA     BYTE      RSTCFG
      000000BCH.5 SFRSYM    DATA     BIT       ADC_FLAG
      000000C7H   SFRSYM    DATA     BYTE      IAP_CONTR
      000000F9H   SFRSYM    DATA     BYTE      LINICR
      0000008EH   SFRSYM    DATA     BYTE      AUXR
      000000AFH   SFRSYM    DATA     BYTE      IE2
      00000088H   SFRSYM    DATA     BYTE      TCON
      00000089H   SFRSYM    DATA     BYTE      TMOD
      00000098H   SFRSYM    DATA     BYTE      SCON
      000000F1H   SFRSYM    DATA     BYTE      CANICR
      00000087H   SFRSYM    DATA     BYTE      PCON
      000000BCH   SFRSYM    DATA     BYTE      ADC_CONTR
      000000E7H   SFRSYM    DATA     BYTE      CMPCR2
      000000E6H   SFRSYM    DATA     BYTE      CMPCR1
      000000DEH   SFRSYM    DATA     BYTE      ADCCFG
      000000B8H   SFRSYM    DATA     BYTE      IP
      0000008FH   SFRSYM    DATA     BYTE      INTCLKO
      000000EEH   SFRSYM    DATA     BYTE      IP3H
      000000B6H   SFRSYM    DATA     BYTE      IP2H
      000000BDH   SFRSYM    DATA     BYTE      ADC_RES
      000000A8H   SFRSYM    DATA     BYTE      IE
      000000BBH   SFRSYM    DATA     BYTE      P_SW3
      000000BAH   SFRSYM    DATA     BYTE      P_SW2
      000000A2H   SFRSYM    DATA     BYTE      P_SW1
L251 LINKER/LOCATER V4.66.93.0                                                        05/22/2024  17:23:32  PAGE 33


      000000CEH   SFRSYM    DATA     BYTE      SPCTL
      000000F8H   SFRSYM    DATA     BYTE      P7
      000000E8H   SFRSYM    DATA     BYTE      P6
      000000C8H   SFRSYM    DATA     BYTE      P5
      000000C0H   SFRSYM    DATA     BYTE      P4
      000000B0H   SFRSYM    DATA     BYTE      P3
      000000A0H   SFRSYM    DATA     BYTE      P2
      00000090H   SFRSYM    DATA     BYTE      P1
      00000080H   SFRSYM    DATA     BYTE      P0

      ---         MODULE    ---      ---       FlowMeter
      00FF26CCH   PUBLIC    CODE     ---       ReadFlow
      00FF45A8H   PUBLIC    CODE     ---       SendReadFlow
      00FF393AH   PUBLIC    CODE     ---       FlowMeterAck
      00010AE1H   PUBLIC    XDATA    ---       RealFlow
      000000D0H   SFRSYM    DATA     BYTE      PSW
      0000009DH   SFRSYM    DATA     BYTE      IRCBAND
      00000097H   SFRSYM    DATA     BYTE      AUXR2
      000000EFH   SFRSYM    DATA     BYTE      AUXINTIF
      000000FDH   SFRSYM    DATA     BYTE      S4CON
      000000ACH   SFRSYM    DATA     BYTE      S3CON
      0000009AH   SFRSYM    DATA     BYTE      S2CON
      000000B7H   SFRSYM    DATA     BYTE      IPH
      000000CDH   SFRSYM    DATA     BYTE      SPSTAT
      000000DDH   SFRSYM    DATA     BYTE      T4T3M
      000000C1H   SFRSYM    DATA     BYTE      WDT_CONTR
      000000DFH   SFRSYM    DATA     BYTE      IP3
      000000F4H   SFRSYM    DATA     BYTE      USBCON
      000000B5H   SFRSYM    DATA     BYTE      IP2
      000000FFH   SFRSYM    DATA     BYTE      RSTCFG
      000000C7H   SFRSYM    DATA     BYTE      IAP_CONTR
      000000F9H   SFRSYM    DATA     BYTE      LINICR
      0000008EH   SFRSYM    DATA     BYTE      AUXR
      000000AFH   SFRSYM    DATA     BYTE      IE2
      00000088H   SFRSYM    DATA     BYTE      TCON
      00000089H   SFRSYM    DATA     BYTE      TMOD
      00000098H   SFRSYM    DATA     BYTE      SCON
      000000F1H   SFRSYM    DATA     BYTE      CANICR
      00000087H   SFRSYM    DATA     BYTE      PCON
      000000BCH   SFRSYM    DATA     BYTE      ADC_CONTR
      000000E7H   SFRSYM    DATA     BYTE      CMPCR2
      000000E6H   SFRSYM    DATA     BYTE      CMPCR1
      000000DEH   SFRSYM    DATA     BYTE      ADCCFG
      000000B8H   SFRSYM    DATA     BYTE      IP
      0000008FH   SFRSYM    DATA     BYTE      INTCLKO
      000000EEH   SFRSYM    DATA     BYTE      IP3H
      000000B6H   SFRSYM    DATA     BYTE      IP2H
      000000A8H   SFRSYM    DATA     BYTE      IE
      000000BBH   SFRSYM    DATA     BYTE      P_SW3
      000000BAH   SFRSYM    DATA     BYTE      P_SW2
      000000A2H   SFRSYM    DATA     BYTE      P_SW1
      000000CEH   SFRSYM    DATA     BYTE      SPCTL
      000000F8H   SFRSYM    DATA     BYTE      P7
      000000E8H   SFRSYM    DATA     BYTE      P6
      000000C8H   SFRSYM    DATA     BYTE      P5
      000000C0H   SFRSYM    DATA     BYTE      P4
      000000B0H   SFRSYM    DATA     BYTE      P3
      000000A0H   SFRSYM    DATA     BYTE      P2
      00000090H   SFRSYM    DATA     BYTE      P1
      00000080H   SFRSYM    DATA     BYTE      P0

      ---         MODULE    ---      ---       ModBusDev
      00FF27A6H   PUBLIC    CODE     ---       ReadAck
      00FF310FH   PUBLIC    CODE     ---       WriteAck
      00FF33F5H   PUBLIC    CODE     ---       WriteRegValue
L251 LINKER/LOCATER V4.66.93.0                                                        05/22/2024  17:23:32  PAGE 34


      00FF46CBH   PUBLIC    CODE     ---       SetRegValue
      00FF337FH   PUBLIC    CODE     ---       PackageReg
      00FF41DEH   PUBLIC    CODE     ---       ModBusSaveParam
      00FF36D2H   PUBLIC    CODE     ---       HndModBusRecv
      00010000H   PUBLIC    XDATA    ---       RecvFrame
      00010108H   PUBLIC    XDATA    ---       DevReadAck
      0001020DH   PUBLIC    XDATA    ---       DevWriteAck
      00010215H   PUBLIC    XDATA    ---       ModBusParam
      00010231H   PUBLIC    XDATA    ---       ModBusStatus
      00010245H   PUBLIC    XDATA    ---       ModBusInfo
      000000D0H   SFRSYM    DATA     BYTE      PSW
      0000009DH   SFRSYM    DATA     BYTE      IRCBAND
      00000097H   SFRSYM    DATA     BYTE      AUXR2
      000000EFH   SFRSYM    DATA     BYTE      AUXINTIF
      000000FDH   SFRSYM    DATA     BYTE      S4CON
      000000ACH   SFRSYM    DATA     BYTE      S3CON
      0000009AH   SFRSYM    DATA     BYTE      S2CON
      000000B7H   SFRSYM    DATA     BYTE      IPH
      000000CDH   SFRSYM    DATA     BYTE      SPSTAT
      000000DDH   SFRSYM    DATA     BYTE      T4T3M
      000000C1H   SFRSYM    DATA     BYTE      WDT_CONTR
      000000DFH   SFRSYM    DATA     BYTE      IP3
      000000F4H   SFRSYM    DATA     BYTE      USBCON
      000000B5H   SFRSYM    DATA     BYTE      IP2
      000000FFH   SFRSYM    DATA     BYTE      RSTCFG
      000000C7H   SFRSYM    DATA     BYTE      IAP_CONTR
      000000F9H   SFRSYM    DATA     BYTE      LINICR
      0000008EH   SFRSYM    DATA     BYTE      AUXR
      000000AFH   SFRSYM    DATA     BYTE      IE2
      00000088H   SFRSYM    DATA     BYTE      TCON
      00000089H   SFRSYM    DATA     BYTE      TMOD
      00000098H   SFRSYM    DATA     BYTE      SCON
      000000F1H   SFRSYM    DATA     BYTE      CANICR
      00000087H   SFRSYM    DATA     BYTE      PCON
      000000BCH   SFRSYM    DATA     BYTE      ADC_CONTR
      000000E7H   SFRSYM    DATA     BYTE      CMPCR2
      000000E6H   SFRSYM    DATA     BYTE      CMPCR1
      000000DEH   SFRSYM    DATA     BYTE      ADCCFG
      000000B8H   SFRSYM    DATA     BYTE      IP
      0000008FH   SFRSYM    DATA     BYTE      INTCLKO
      000000EEH   SFRSYM    DATA     BYTE      IP3H
      000000B6H   SFRSYM    DATA     BYTE      IP2H
      000000A8H   SFRSYM    DATA     BYTE      IE
      000000BBH   SFRSYM    DATA     BYTE      P_SW3
      000000BAH   SFRSYM    DATA     BYTE      P_SW2
      000000A2H   SFRSYM    DATA     BYTE      P_SW1
      000000CEH   SFRSYM    DATA     BYTE      SPCTL
      000000F8H   SFRSYM    DATA     BYTE      P7
      000000E8H   SFRSYM    DATA     BYTE      P6
      000000C8H   SFRSYM    DATA     BYTE      P5
      000000C0H   SFRSYM    DATA     BYTE      P4
      000000B0H   SFRSYM    DATA     BYTE      P3
      000000A0H   SFRSYM    DATA     BYTE      P2
      00000090H   SFRSYM    DATA     BYTE      P1
      00000080H   SFRSYM    DATA     BYTE      P0

      ---         MODULE    ---      ---       ModBusHost
      00FF4162H   PUBLIC    CODE     ---       SendTcpFrame
      00FF1D21H   PUBLIC    CODE     ---       HostSendCmd
      00FF421BH   PUBLIC    CODE     ---       PopReg
      00FF44B6H   PUBLIC    CODE     ---       SendBuffer
      00010483H   PUBLIC    XDATA    ---       WriteAckFrame
      0001048BH   PUBLIC    XDATA    ---       HostSendFrame
      00010593H   PUBLIC    XDATA    ---       ReadAckFrame
      0000040AH   PUBLIC    EDATA    WORD      HostBufIndex
L251 LINKER/LOCATER V4.66.93.0                                                        05/22/2024  17:23:32  PAGE 35


      0000040CH   PUBLIC    EDATA    ---       MbId
      000002AAH   PUBLIC    EDATA    BYTE      ?HostSendCmd?BYTE
      000000D0H   SFRSYM    DATA     BYTE      PSW
      0000009DH   SFRSYM    DATA     BYTE      IRCBAND
      00000097H   SFRSYM    DATA     BYTE      AUXR2
      000000EFH   SFRSYM    DATA     BYTE      AUXINTIF
      000000FDH   SFRSYM    DATA     BYTE      S4CON
      000000ACH   SFRSYM    DATA     BYTE      S3CON
      0000009AH   SFRSYM    DATA     BYTE      S2CON
      000000B7H   SFRSYM    DATA     BYTE      IPH
      000000CDH   SFRSYM    DATA     BYTE      SPSTAT
      000000DDH   SFRSYM    DATA     BYTE      T4T3M
      000000C1H   SFRSYM    DATA     BYTE      WDT_CONTR
      000000DFH   SFRSYM    DATA     BYTE      IP3
      000000F4H   SFRSYM    DATA     BYTE      USBCON
      000000B5H   SFRSYM    DATA     BYTE      IP2
      000000FFH   SFRSYM    DATA     BYTE      RSTCFG
      000000C7H   SFRSYM    DATA     BYTE      IAP_CONTR
      000000F9H   SFRSYM    DATA     BYTE      LINICR
      0000008EH   SFRSYM    DATA     BYTE      AUXR
      000000AFH   SFRSYM    DATA     BYTE      IE2
      00000088H   SFRSYM    DATA     BYTE      TCON
      00000089H   SFRSYM    DATA     BYTE      TMOD
      00000098H   SFRSYM    DATA     BYTE      SCON
      000000F1H   SFRSYM    DATA     BYTE      CANICR
      00000087H   SFRSYM    DATA     BYTE      PCON
      000000BCH   SFRSYM    DATA     BYTE      ADC_CONTR
      000000E7H   SFRSYM    DATA     BYTE      CMPCR2
      000000E6H   SFRSYM    DATA     BYTE      CMPCR1
      000000DEH   SFRSYM    DATA     BYTE      ADCCFG
      000000B8H   SFRSYM    DATA     BYTE      IP
      0000008FH   SFRSYM    DATA     BYTE      INTCLKO
      000000EEH   SFRSYM    DATA     BYTE      IP3H
      000000B6H   SFRSYM    DATA     BYTE      IP2H
      000000A8H   SFRSYM    DATA     BYTE      IE
      000000BBH   SFRSYM    DATA     BYTE      P_SW3
      000000BAH   SFRSYM    DATA     BYTE      P_SW2
      000000A2H   SFRSYM    DATA     BYTE      P_SW1
      000000CEH   SFRSYM    DATA     BYTE      SPCTL
      000000F8H   SFRSYM    DATA     BYTE      P7
      000000E8H   SFRSYM    DATA     BYTE      P6
      000000C8H   SFRSYM    DATA     BYTE      P5
      000000C0H   SFRSYM    DATA     BYTE      P4
      000000B0H   SFRSYM    DATA     BYTE      P3
      000000A0H   SFRSYM    DATA     BYTE      P2
      00000090H   SFRSYM    DATA     BYTE      P1
      00000080H   SFRSYM    DATA     BYTE      P0

      ---         MODULE    ---      ---       ?C?FPADD
      00FF013EH   PUBLIC    CODE     ---       ?C?FPADD
      00FF013BH   PUBLIC    CODE     ---       ?C?FPSUB

      ---         MODULE    ---      ---       ?C?FPMUL
      00FF01F6H   PUBLIC    CODE     ---       ?C?FPMUL

      ---         MODULE    ---      ---       ?C?FPDIV
      00FF0296H   PUBLIC    CODE     ---       ?C?FPDIV

      ---         MODULE    ---      ---       ?C?FPCMP
      00FF0319H   PUBLIC    CODE     ---       ?C?FPCMP
      00FF0317H   PUBLIC    CODE     ---       ?C?FPCMP3

      ---         MODULE    ---      ---       ?C?FCAST
      00FF0367H   PUBLIC    CODE     NEAR LAB  ?C?FCASTC
      00FF0362H   PUBLIC    CODE     NEAR LAB  ?C?FCASTI
L251 LINKER/LOCATER V4.66.93.0                                                        05/22/2024  17:23:32  PAGE 36


      00FF035DH   PUBLIC    CODE     NEAR LAB  ?C?FCASTL

      ---         MODULE    ---      ---       ?C?CASTF
      00FF039AH   PUBLIC    CODE     NEAR LAB  ?C?CASTF

      ---         MODULE    ---      ---       SPRINTF
      00000259H   PUBLIC    EDATA    ---       ?SPRINTF?BYTE
      00FF03D7H   PUBLIC    CODE     NEAR LAB  SPRINTF

      ---         MODULE    ---      ---       ?C?FPGETOPN
      00FF03F7H   PUBLIC    CODE     ---       ?C?FPGETOPN2
      00FF0434H   PUBLIC    CODE     ---       ?C?FPNANRESULT
      00FF043CH   PUBLIC    CODE     ---       ?C?FPOVERFLOW
      00FF0410H   PUBLIC    CODE     ---       ?C?FPRESULT
      00FF0426H   PUBLIC    CODE     ---       ?C?FPRESULT2
      00FF0439H   PUBLIC    CODE     ---       ?C?FPUNDERFLOW

      ---         MODULE    ---      ---       ?C?PRNFMT
      00FF0475H   PUBLIC    CODE     ---       ?C?PRNFMT

      ---         MODULE    ---      ---       ?C?FPCONVERT
      00FF0892H   PUBLIC    CODE     ---       ?C?FPCONVERT
      00FF094AH   PUBLIC    CODE     ---       ?C?FPROUND

      ---         MODULE    ---      ---       ?C?FTNPWR
      00FF09BDH   PUBLIC    CODE     ---       ?C?FTNPWR

      ---         MODULE    ---      ---       ?C_START
      00FF0000H   PUBLIC    CODE     ---       ?C?STARTUP
      00FF0000H   PUBLIC    CODE     ---       ?C_STARTUP

      ---         MODULE    ---      ---       ?C?INITEDATA
      00FF347DH   PUBLIC    CODE     ---       ?C?INITEDATA

      ---         MODULE    ---      ---       ?C?INITHDATA
      00FF34A6H   PUBLIC    CODE     ---       ?C?INITHDATA

      ---         MODULE    ---      ---       ?C?SIDIV
      00FF09F4H   PUBLIC    CODE     ---       ?C?SIDIV

      ---         MODULE    ---      ---       ?C?LIMUL
      00FF0A26H   PUBLIC    CODE     ---       ?C?LIMUL

      ---         MODULE    ---      ---       ?C?ULDIV
      00FF0A31H   PUBLIC    CODE     NEAR LAB  ?C?ULDIV
      00FF0A2FH   PUBLIC    CODE     NEAR LAB  ?C?ULIDIV

      ---         MODULE    ---      ---       ?C?BMOVENP
      00FF0A84H   PUBLIC    CODE     ---       ?C?BMOVENP
      00FF0A82H   PUBLIC    CODE     ---       ?C?BMOVENP8

      ---         MODULE    ---      ---       STRLEN
      00FF48BDH   PUBLIC    CODE     ---       strlen?_

      ---         MODULE    ---      ---       memcmp
      00FF43A8H   PUBLIC    CODE     ---       memcmp?_

      ---         MODULE    ---      ---       memcpy
      00FF461AH   PUBLIC    CODE     ---       memcpy?_

      ---         MODULE    ---      ---       memset
      00FF477FH   PUBLIC    CODE     ---       memset?_

      ---         MODULE    ---      ---       ?C?INITEDATA_END
      00FF4D60H   PUBLIC    HCONST   WORD      ?C?INITEDATA_END
L251 LINKER/LOCATER V4.66.93.0                                                        05/22/2024  17:23:32  PAGE 37



      ---         MODULE    ---      ---       ?C?INITHDATA_END
      00FF4C0BH   PUBLIC    HCONST   WORD      ?C?INITHDATA_END

Program Size: data=8.4 edata+hdata=1362 xdata=2893 const=1332 code=18666
L251 RUN COMPLETE.  0 WARNING(S),  0 ERROR(S)
